

Microchip MPLAB XC8 Assembler V2.40 build 20220703182018 
                                                                                               Sat Mar 25 21:31:19 2023

Microchip MPLAB XC8 C Compiler v2.40 (Free license) build 20220703182018 Og1 
     1                           	processor	16F887
     2                           	pagewidth 120
     3                           	opt	flic
     4                           	psect	idataBANK0,global,class=CODE,delta=2,noexec
     5                           	psect	cinit,global,class=CODE,merge=1,delta=2
     6                           	psect	bssCOMMON,global,class=COMMON,space=1,delta=1,noexec
     7                           	psect	bssBANK0,global,class=BANK0,space=1,delta=1,noexec
     8                           	psect	dataBANK0,global,class=BANK0,space=1,delta=1,noexec
     9                           	psect	inittext,global,class=CODE,delta=2
    10                           	psect	cstackCOMMON,global,class=COMMON,space=1,delta=1,noexec
    11                           	psect	cstackBANK0,global,class=BANK0,space=1,delta=1,noexec
    12                           	psect	maintext,global,class=CODE,split=1,delta=2
    13                           	psect	text1,local,class=CODE,merge=1,delta=2
    14                           	psect	text2,local,class=CODE,merge=1,delta=2
    15                           	psect	text3,local,class=CODE,merge=1,delta=2,group=1
    16                           	psect	text4,local,class=CODE,merge=1,delta=2,group=1
    17                           	psect	text5,local,class=CODE,merge=1,delta=2,group=1
    18                           	psect	text6,local,class=CODE,merge=1,delta=2,group=1
    19                           	psect	text7,local,class=CODE,merge=1,delta=2,group=1
    20                           	psect	text8,local,class=CODE,merge=1,delta=2,group=1
    21                           	psect	text9,local,class=CODE,merge=1,delta=2
    22                           	psect	intentry,global,class=CODE,delta=2
    23                           	psect	idloc,global,abs,ovrld,class=IDLOC,space=5,delta=2,noexec
    24                           	psect	config,global,abs,ovrld,class=CONFIG,space=4,delta=2,noexec
    25                           	dabs	1,0x7E,2
    26     0000                     
    27                           ; Version 2.40
    28                           ; Generated 17/11/2021 GMT
    29                           ; 
    30                           ; Copyright © 2021, Microchip Technology Inc. and its subsidiaries ("Microchip")
    31                           ; All rights reserved.
    32                           ; 
    33                           ; This software is developed by Microchip Technology Inc. and its subsidiaries ("Microch
      +                          ip").
    34                           ; 
    35                           ; Redistribution and use in source and binary forms, with or without modification, are
    36                           ; permitted provided that the following conditions are met:
    37                           ; 
    38                           ;     1. Redistributions of source code must retain the above copyright notice, this lis
      +                          t of
    39                           ;        conditions and the following disclaimer.
    40                           ; 
    41                           ;     2. Redistributions in binary form must reproduce the above copyright notice, this 
      +                          list
    42                           ;        of conditions and the following disclaimer in the documentation and/or other
    43                           ;        materials provided with the distribution. Publication is not required when
    44                           ;        this file is used in an embedded application.
    45                           ; 
    46                           ;     3. Microchip's name may not be used to endorse or promote products derived from th
      +                          is
    47                           ;        software without specific prior written permission.
    48                           ; 
    49                           ; THIS SOFTWARE IS PROVIDED BY MICROCHIP "AS IS" AND ANY EXPRESS OR IMPLIED WARRANTIES,
    50                           ; INCLUDING, BUT NOT LIMITED TO, THE IMPLIED WARRANTIES OF MERCHANTABILITY AND FITNESS F
      +                          OR
    51                           ; PURPOSE ARE DISCLAIMED.  IN NO EVENT SHALL MICROCHIP BE LIABLE FOR ANY DIRECT, INDIREC
      +                          T,
    52                           ; INCIDENTAL, SPECIAL, EXEMPLARY, OR CONSEQUENTIAL DAMAGES (INCLUDING BUT NOT LIMITED TO
    53                           ; PROCUREMENT OF SUBSTITUTE GOODS OR SERVICES; LOSS OF USE, DATA OR PROFITS; OR BUSINESS
    54                           ; INTERRUPTION) HOWSOEVER CAUSED AND ON ANY THEORY OF LIABILITY, WHETHER IN CONTRACT, ST
      +                          RICT
    55                           ; LIABILITY, OR TORT (INCLUDING NEGLIGENCE OR OTHERWISE) ARISING IN ANY WAY OUT OF THE U
      +                          SE OF
    56                           ; THIS SOFTWARE, EVEN IF ADVISED OF THE POSSIBILITY OF SUCH DAMAGE.
    57                           ; 
    58                           ; 
    59                           ; Code-generator required, PIC16F887 Definitions
    60                           ; 
    61                           ; SFR Addresses
    62     0000                     	;# 
    63     0001                     	;# 
    64     0002                     	;# 
    65     0003                     	;# 
    66     0004                     	;# 
    67     0005                     	;# 
    68     0006                     	;# 
    69     0007                     	;# 
    70     0008                     	;# 
    71     0009                     	;# 
    72     000A                     	;# 
    73     000B                     	;# 
    74     000C                     	;# 
    75     000D                     	;# 
    76     000E                     	;# 
    77     000E                     	;# 
    78     000F                     	;# 
    79     0010                     	;# 
    80     0011                     	;# 
    81     0012                     	;# 
    82     0013                     	;# 
    83     0014                     	;# 
    84     0015                     	;# 
    85     0015                     	;# 
    86     0016                     	;# 
    87     0017                     	;# 
    88     0018                     	;# 
    89     0019                     	;# 
    90     001A                     	;# 
    91     001B                     	;# 
    92     001B                     	;# 
    93     001C                     	;# 
    94     001D                     	;# 
    95     001E                     	;# 
    96     001F                     	;# 
    97     0081                     	;# 
    98     0085                     	;# 
    99     0086                     	;# 
   100     0087                     	;# 
   101     0088                     	;# 
   102     0089                     	;# 
   103     008C                     	;# 
   104     008D                     	;# 
   105     008E                     	;# 
   106     008F                     	;# 
   107     0090                     	;# 
   108     0091                     	;# 
   109     0092                     	;# 
   110     0093                     	;# 
   111     0093                     	;# 
   112     0093                     	;# 
   113     0094                     	;# 
   114     0095                     	;# 
   115     0096                     	;# 
   116     0097                     	;# 
   117     0098                     	;# 
   118     0099                     	;# 
   119     009A                     	;# 
   120     009B                     	;# 
   121     009C                     	;# 
   122     009D                     	;# 
   123     009E                     	;# 
   124     009F                     	;# 
   125     0105                     	;# 
   126     0107                     	;# 
   127     0108                     	;# 
   128     0109                     	;# 
   129     010C                     	;# 
   130     010C                     	;# 
   131     010D                     	;# 
   132     010E                     	;# 
   133     010F                     	;# 
   134     0185                     	;# 
   135     0187                     	;# 
   136     0188                     	;# 
   137     0189                     	;# 
   138     018C                     	;# 
   139     018D                     	;# 
   140     0000                     	;# 
   141     0001                     	;# 
   142     0002                     	;# 
   143     0003                     	;# 
   144     0004                     	;# 
   145     0005                     	;# 
   146     0006                     	;# 
   147     0007                     	;# 
   148     0008                     	;# 
   149     0009                     	;# 
   150     000A                     	;# 
   151     000B                     	;# 
   152     000C                     	;# 
   153     000D                     	;# 
   154     000E                     	;# 
   155     000E                     	;# 
   156     000F                     	;# 
   157     0010                     	;# 
   158     0011                     	;# 
   159     0012                     	;# 
   160     0013                     	;# 
   161     0014                     	;# 
   162     0015                     	;# 
   163     0015                     	;# 
   164     0016                     	;# 
   165     0017                     	;# 
   166     0018                     	;# 
   167     0019                     	;# 
   168     001A                     	;# 
   169     001B                     	;# 
   170     001B                     	;# 
   171     001C                     	;# 
   172     001D                     	;# 
   173     001E                     	;# 
   174     001F                     	;# 
   175     0081                     	;# 
   176     0085                     	;# 
   177     0086                     	;# 
   178     0087                     	;# 
   179     0088                     	;# 
   180     0089                     	;# 
   181     008C                     	;# 
   182     008D                     	;# 
   183     008E                     	;# 
   184     008F                     	;# 
   185     0090                     	;# 
   186     0091                     	;# 
   187     0092                     	;# 
   188     0093                     	;# 
   189     0093                     	;# 
   190     0093                     	;# 
   191     0094                     	;# 
   192     0095                     	;# 
   193     0096                     	;# 
   194     0097                     	;# 
   195     0098                     	;# 
   196     0099                     	;# 
   197     009A                     	;# 
   198     009B                     	;# 
   199     009C                     	;# 
   200     009D                     	;# 
   201     009E                     	;# 
   202     009F                     	;# 
   203     0105                     	;# 
   204     0107                     	;# 
   205     0108                     	;# 
   206     0109                     	;# 
   207     010C                     	;# 
   208     010C                     	;# 
   209     010D                     	;# 
   210     010E                     	;# 
   211     010F                     	;# 
   212     0185                     	;# 
   213     0187                     	;# 
   214     0188                     	;# 
   215     0189                     	;# 
   216     018C                     	;# 
   217     018D                     	;# 
   218                           
   219                           	psect	idataBANK0
   220     0711                     __pidataBANK0:
   221                           
   222                           ;initializer for _TABLA
   223     0711  343F               	retlw	63
   224     0712  3406               	retlw	6
   225     0713  345B               	retlw	91
   226     0714  344F               	retlw	79
   227     0715  3466               	retlw	102
   228     0716  346D               	retlw	109
   229     0717  347D               	retlw	125
   230     0718  3407               	retlw	7
   231     0719  347F               	retlw	127
   232     071A  3467               	retlw	103
   233     071B  3449               	retlw	73
   234     071C  3440               	retlw	64
   235     071D  3401               	retlw	1
   236     071E  3448               	retlw	72
   237     071F  3401               	retlw	1
   238     0720  3401               	retlw	1
   239     0006                     _PORTB	set	6
   240     0005                     _PORTA	set	5
   241     0001                     _TMR0	set	1
   242     0007                     _PORTC	set	7
   243     0009                     _PORTE	set	9
   244     000B                     _INTCONbits	set	11
   245     001E                     _ADRESH	set	30
   246     0008                     _PORTD	set	8
   247     001F                     _ADCON0bits	set	31
   248     000C                     _PIR1bits	set	12
   249     0066                     _ADIF	set	102
   250     009F                     _ADCON1bits	set	159
   251     008C                     _PIE1bits	set	140
   252     0081                     _OPTION_REGbits	set	129
   253     008F                     _OSCCONbits	set	143
   254     0089                     _TRISE	set	137
   255     0088                     _TRISD	set	136
   256     0087                     _TRISC	set	135
   257     0086                     _TRISB	set	134
   258     0085                     _TRISA	set	133
   259     0189                     _ANSELH	set	393
   260     0188                     _ANSEL	set	392
   261                           
   262                           	psect	cinit
   263     000F                     start_initialization:	
   264                           ; #config settings
   265                           
   266     000F                     __initialization:
   267                           
   268                           ; Initialize objects allocated to BANK0
   269     000F  1383               	bcf	3,7	;select IRP bank0
   270     0010  305F               	movlw	low (__pdataBANK0+16)
   271     0011  00FD               	movwf	btemp+-1
   272     0012  3007               	movlw	high __pidataBANK0
   273     0013  00FE               	movwf	btemp
   274     0014  3011               	movlw	low __pidataBANK0
   275     0015  00FF               	movwf	btemp+1
   276     0016  304F               	movlw	low __pdataBANK0
   277     0017  0084               	movwf	4
   278     0018  120A  118A  2702  120A  118A  	fcall	init_ram0
   279                           
   280                           ; Clear objects allocated to BANK0
   281     001D  01DF               	clrf	__pbssBANK0& (0+127)
   282     001E  01E0               	clrf	(__pbssBANK0+1)& (0+127)
   283     001F  01E1               	clrf	(__pbssBANK0+2)& (0+127)
   284     0020  01E2               	clrf	(__pbssBANK0+3)& (0+127)
   285     0021  01E3               	clrf	(__pbssBANK0+4)& (0+127)
   286     0022  01E4               	clrf	(__pbssBANK0+5)& (0+127)
   287     0023  01E5               	clrf	(__pbssBANK0+6)& (0+127)
   288     0024  01E6               	clrf	(__pbssBANK0+7)& (0+127)
   289     0025  01E7               	clrf	(__pbssBANK0+8)& (0+127)
   290     0026  01E8               	clrf	(__pbssBANK0+9)& (0+127)
   291     0027  01E9               	clrf	(__pbssBANK0+10)& (0+127)
   292                           
   293                           ; Clear objects allocated to COMMON
   294     0028  01F9               	clrf	__pbssCOMMON& (0+127)
   295     0029                     end_of_initialization:	
   296                           ;End of C runtime variable initialization code
   297                           
   298     0029                     __end_of__initialization:
   299     0029  0183               	clrf	3
   300     002A  120A  118A  2C2C   	ljmp	_main	;jump to C main() function
   301                           
   302                           	psect	bssCOMMON
   303     0079                     __pbssCOMMON:
   304     0079                     _bandera:
   305     0079                     	ds	1
   306                           
   307                           	psect	bssBANK0
   308     005F                     __pbssBANK0:
   309     005F                     _display:
   310     005F                     	ds	3
   311     0062                     _voltage:
   312     0062                     	ds	2
   313     0064                     _ADC_display:
   314     0064                     	ds	2
   315     0066                     _residuo:
   316     0066                     	ds	1
   317     0067                     _unidades:
   318     0067                     	ds	1
   319     0068                     _decenas:
   320     0068                     	ds	1
   321     0069                     _centenas:
   322     0069                     	ds	1
   323                           
   324                           	psect	dataBANK0
   325     004F                     __pdataBANK0:
   326     004F                     _TABLA:
   327     004F                     	ds	16
   328                           
   329                           	psect	inittext
   330     06FE                     init_fetch0:	
   331                           ;	Called with low address in FSR and high address in W
   332                           
   333     06FE  087E               	movf	btemp,w
   334     06FF  008A               	movwf	10
   335     0700  087F               	movf	btemp+1,w
   336     0701  0082               	movwf	2
   337     0702                     init_ram0:	
   338                           ;Called with:
   339                           ;	high address of idata address in btemp 
   340                           ;	low address of idata address in btemp+1 
   341                           ;	low address of data in FSR
   342                           ;	high address + 1 of data in btemp-1
   343                           
   344     0702  120A  118A  26FE  120A  118A  	fcall	init_fetch0
   345     0707  0080               	movwf	0
   346     0708  0A84               	incf	4,f
   347     0709  0804               	movf	4,w
   348     070A  067D               	xorwf	btemp+-1,w
   349     070B  1903               	btfsc	3,2
   350     070C  3400               	retlw	0
   351     070D  0AFF               	incf	btemp+1,f
   352     070E  1903               	btfsc	3,2
   353     070F  0AFE               	incf	btemp,f
   354     0710  2F02               	goto	init_ram0
   355                           
   356                           	psect	cstackCOMMON
   357     0070                     __pcstackCOMMON:
   358     0070                     ?_setup:
   359     0070                     ?_isr:	
   360                           ; 1 bytes @ 0x0
   361                           
   362     0070                     ??_isr:	
   363                           ; 1 bytes @ 0x0
   364                           
   365     0070                     ?_main:	
   366                           ; 1 bytes @ 0x0
   367                           
   368                           
   369                           ; 1 bytes @ 0x0
   370     0070                     	ds	4
   371     0074                     ??_setup:
   372     0074                     ?__Umul8_16:	
   373                           ; 1 bytes @ 0x4
   374                           
   375     0074                     ?___awdiv:	
   376                           ; 2 bytes @ 0x4
   377                           
   378     0074                     ?___awmod:	
   379                           ; 2 bytes @ 0x4
   380                           
   381     0074                     ?___xxtofl:	
   382                           ; 2 bytes @ 0x4
   383                           
   384     0074                     __Umul8_16@multiplicand:	
   385                           ; 4 bytes @ 0x4
   386                           
   387     0074                     ___awdiv@divisor:	
   388                           ; 1 bytes @ 0x4
   389                           
   390     0074                     ___awmod@divisor:	
   391                           ; 2 bytes @ 0x4
   392                           
   393     0074                     ___xxtofl@val:	
   394                           ; 2 bytes @ 0x4
   395                           
   396                           
   397                           ; 4 bytes @ 0x4
   398     0074                     	ds	2
   399     0076                     ??__Umul8_16:
   400     0076                     ___awdiv@dividend:	
   401                           ; 1 bytes @ 0x6
   402                           
   403     0076                     ___awmod@dividend:	
   404                           ; 2 bytes @ 0x6
   405                           
   406                           
   407                           ; 2 bytes @ 0x6
   408     0076                     	ds	2
   409     0078                     ??___awdiv:
   410     0078                     ??___awmod:	
   411                           ; 1 bytes @ 0x8
   412                           
   413                           
   414                           ; 1 bytes @ 0x8
   415     0078                     	ds	1
   416                           
   417                           	psect	cstackBANK0
   418     0020                     __pcstackBANK0:
   419     0020                     ??___xxtofl:
   420     0020                     ___awdiv@counter:	
   421                           ; 1 bytes @ 0x0
   422                           
   423     0020                     ___awmod@counter:	
   424                           ; 1 bytes @ 0x0
   425                           
   426     0020                     __Umul8_16@product:	
   427                           ; 1 bytes @ 0x0
   428                           
   429                           
   430                           ; 2 bytes @ 0x0
   431     0020                     	ds	1
   432     0021                     ___awdiv@sign:
   433     0021                     ___awmod@sign:	
   434                           ; 1 bytes @ 0x1
   435                           
   436                           
   437                           ; 1 bytes @ 0x1
   438     0021                     	ds	1
   439     0022                     ___awdiv@quotient:
   440     0022                     __Umul8_16@word_mpld:	
   441                           ; 2 bytes @ 0x2
   442                           
   443                           
   444                           ; 2 bytes @ 0x2
   445     0022                     	ds	2
   446     0024                     ?_displays:
   447     0024                     __Umul8_16@multiplier:	
   448                           ; 1 bytes @ 0x4
   449                           
   450     0024                     ___xxtofl@sign:	
   451                           ; 1 bytes @ 0x4
   452                           
   453     0024                     displays@numeros:	
   454                           ; 1 bytes @ 0x4
   455                           
   456                           
   457                           ; 2 bytes @ 0x4
   458     0024                     	ds	1
   459     0025                     ___xxtofl@exp:
   460                           
   461                           ; 1 bytes @ 0x5
   462     0025                     	ds	1
   463     0026                     ??_displays:
   464     0026                     ___xxtofl@arg:	
   465                           ; 1 bytes @ 0x6
   466                           
   467                           
   468                           ; 4 bytes @ 0x6
   469     0026                     	ds	4
   470     002A                     ?___flmul:
   471     002A                     ___flmul@b:	
   472                           ; 4 bytes @ 0xA
   473                           
   474                           
   475                           ; 4 bytes @ 0xA
   476     002A                     	ds	4
   477     002E                     ___flmul@a:
   478                           
   479                           ; 4 bytes @ 0xE
   480     002E                     	ds	4
   481     0032                     ??___flmul:
   482                           
   483                           ; 1 bytes @ 0x12
   484     0032                     	ds	5
   485     0037                     ___flmul@sign:
   486                           
   487                           ; 1 bytes @ 0x17
   488     0037                     	ds	1
   489     0038                     ___flmul@grs:
   490                           
   491                           ; 4 bytes @ 0x18
   492     0038                     	ds	4
   493     003C                     ___flmul@aexp:
   494                           
   495                           ; 1 bytes @ 0x1C
   496     003C                     	ds	1
   497     003D                     ___flmul@bexp:
   498                           
   499                           ; 1 bytes @ 0x1D
   500     003D                     	ds	1
   501     003E                     ___flmul@prod:
   502                           
   503                           ; 4 bytes @ 0x1E
   504     003E                     	ds	4
   505     0042                     ___flmul@temp:
   506                           
   507                           ; 2 bytes @ 0x22
   508     0042                     	ds	2
   509     0044                     ?___fltol:
   510     0044                     ___fltol@f1:	
   511                           ; 4 bytes @ 0x24
   512                           
   513                           
   514                           ; 4 bytes @ 0x24
   515     0044                     	ds	4
   516     0048                     ??___fltol:
   517                           
   518                           ; 1 bytes @ 0x28
   519     0048                     	ds	4
   520     004C                     ___fltol@sign1:
   521                           
   522                           ; 1 bytes @ 0x2C
   523     004C                     	ds	1
   524     004D                     ___fltol@exp1:
   525                           
   526                           ; 1 bytes @ 0x2D
   527     004D                     	ds	1
   528     004E                     ??_main:
   529                           
   530                           ; 1 bytes @ 0x2E
   531     004E                     	ds	1
   532                           
   533                           	psect	maintext
   534     042C                     __pmaintext:	
   535 ;;
   536 ;;Main: autosize = 0, tempsize = 1, incstack = 0, save=0
   537 ;;
   538 ;; *************** function _main *****************
   539 ;; Defined at:
   540 ;;		line 119 in file "newmain.c"
   541 ;; Parameters:    Size  Location     Type
   542 ;;		None
   543 ;; Auto vars:     Size  Location     Type
   544 ;;		None
   545 ;; Return value:  Size  Location     Type
   546 ;;                  1    wreg      void 
   547 ;; Registers used:
   548 ;;		wreg, fsr0l, fsr0h, status,2, status,0, btemp+1, pclath, cstack
   549 ;; Tracked objects:
   550 ;;		On entry : B00/0
   551 ;;		On exit  : 0/0
   552 ;;		Unchanged: 0/0
   553 ;; Data sizes:     COMMON   BANK0   BANK1   BANK3   BANK2
   554 ;;      Params:         0       0       0       0       0
   555 ;;      Locals:         0       0       0       0       0
   556 ;;      Temps:          0       1       0       0       0
   557 ;;      Totals:         0       1       0       0       0
   558 ;;Total ram usage:        1 bytes
   559 ;; Hardware stack levels required when called: 3
   560 ;; This function calls:
   561 ;;		___flmul
   562 ;;		___fltol
   563 ;;		___xxtofl
   564 ;;		_displays
   565 ;;		_setup
   566 ;; This function is called by:
   567 ;;		Startup code after reset
   568 ;; This function uses a non-reentrant model
   569 ;;
   570                           
   571     042C                     _main:	
   572                           ;psect for function _main
   573                           
   574     042C                     l1600:	
   575                           ;incstack = 0
   576                           ; Regs used in _main: [wreg-fsr0h+status,2+status,0+btemp+1+pclath+cstack]
   577                           
   578                           
   579                           ;newmain.c: 120:     setup();
   580     042C  120A  118A  2689  120A  118A  	fcall	_setup
   581     0431                     l1602:
   582                           
   583                           ;newmain.c: 123:         ADCON0bits.GO = 1;
   584     0431  1283               	bcf	3,5	;RP0=0, select bank0
   585     0432  1303               	bcf	3,6	;RP1=0, select bank0
   586     0433  149F               	bsf	31,1	;volatile
   587     0434                     l1604:
   588                           
   589                           ;newmain.c: 128:         voltage = (int)(ADC_display*((float)5/255*(100)));
   590     0434  0864               	movf	_ADC_display,w
   591     0435  00F4               	movwf	___xxtofl@val
   592     0436  0865               	movf	_ADC_display+1,w
   593     0437  00F5               	movwf	___xxtofl@val+1
   594     0438  3000               	movlw	0
   595     0439  1BF5               	btfsc	___xxtofl@val+1,7
   596     043A  30FF               	movlw	255
   597     043B  00F6               	movwf	___xxtofl@val+2
   598     043C  00F7               	movwf	___xxtofl@val+3
   599     043D  3001               	movlw	1
   600     043E  120A  118A  2372  120A  118A  	fcall	___xxtofl
   601     0443  0877               	movf	?___xxtofl+3,w
   602     0444  1283               	bcf	3,5	;RP0=0, select bank0
   603     0445  1303               	bcf	3,6	;RP1=0, select bank0
   604     0446  00B1               	movwf	___flmul@a+3
   605     0447  0876               	movf	?___xxtofl+2,w
   606     0448  00B0               	movwf	___flmul@a+2
   607     0449  0875               	movf	?___xxtofl+1,w
   608     044A  00AF               	movwf	___flmul@a+1
   609     044B  0874               	movf	?___xxtofl,w
   610     044C  00AE               	movwf	___flmul@a
   611     044D  303F               	movlw	63
   612     044E  00AD               	movwf	___flmul@b+3
   613     044F  30FA               	movlw	250
   614     0450  00AC               	movwf	___flmul@b+2
   615     0451  30FA               	movlw	250
   616     0452  00AB               	movwf	___flmul@b+1
   617     0453  30FB               	movlw	251
   618     0454  00AA               	movwf	___flmul@b
   619     0455  120A  118A  202D  120A  118A  	fcall	___flmul
   620     045A  1283               	bcf	3,5	;RP0=0, select bank0
   621     045B  1303               	bcf	3,6	;RP1=0, select bank0
   622     045C  082D               	movf	?___flmul+3,w
   623     045D  00C7               	movwf	___fltol@f1+3
   624     045E  082C               	movf	?___flmul+2,w
   625     045F  00C6               	movwf	___fltol@f1+2
   626     0460  082B               	movf	?___flmul+1,w
   627     0461  00C5               	movwf	___fltol@f1+1
   628     0462  082A               	movf	?___flmul,w
   629     0463  00C4               	movwf	___fltol@f1
   630     0464  120A  118A  24A9  120A  118A  	fcall	___fltol
   631     0469  1283               	bcf	3,5	;RP0=0, select bank0
   632     046A  1303               	bcf	3,6	;RP1=0, select bank0
   633     046B  0845               	movf	?___fltol+1,w
   634     046C  00E3               	movwf	_voltage+1
   635     046D  0844               	movf	?___fltol,w
   636     046E  00E2               	movwf	_voltage
   637     046F                     l1606:
   638                           
   639                           ;newmain.c: 129:         displays(voltage);
   640     046F  0863               	movf	_voltage+1,w
   641     0470  00A5               	movwf	displays@numeros+1
   642     0471  0862               	movf	_voltage,w
   643     0472  00A4               	movwf	displays@numeros
   644     0473  120A  118A  263A  120A  118A  	fcall	_displays
   645     0478                     l1608:
   646                           
   647                           ;newmain.c: 131:         display[0] = TABLA[unidades];
   648     0478  1283               	bcf	3,5	;RP0=0, select bank0
   649     0479  1303               	bcf	3,6	;RP1=0, select bank0
   650     047A  0867               	movf	_unidades,w
   651     047B  3E4F               	addlw	(low (_TABLA| 0))& (0+255)
   652     047C  0084               	movwf	4
   653     047D  1383               	bcf	3,7	;select IRP bank0
   654     047E  0800               	movf	0,w
   655     047F  00DF               	movwf	_display
   656     0480                     l1610:
   657                           
   658                           ;newmain.c: 132:         display[1] = TABLA[decenas];
   659     0480  0868               	movf	_decenas,w
   660     0481  3E4F               	addlw	(low (_TABLA| 0))& (0+255)
   661     0482  0084               	movwf	4
   662     0483  0800               	movf	0,w
   663     0484  00E0               	movwf	_display+1
   664     0485                     l1612:
   665                           
   666                           ;newmain.c: 133:         display[2] = TABLA[centenas];
   667     0485  0869               	movf	_centenas,w
   668     0486  3E4F               	addlw	(low (_TABLA| 0))& (0+255)
   669     0487  0084               	movwf	4
   670     0488  0800               	movf	0,w
   671     0489  00E1               	movwf	_display+2
   672     048A                     l1614:
   673                           
   674                           ;newmain.c: 135:     if (ADCON0bits.GO == 0){
   675     048A  189F               	btfsc	31,1	;volatile
   676     048B  2C8D               	goto	u1951
   677     048C  2C8E               	goto	u1950
   678     048D                     u1951:
   679     048D  2C31               	goto	l1602
   680     048E                     u1950:
   681     048E                     l1616:
   682                           
   683                           ;newmain.c: 136:         if (ADCON0bits.CHS == 0b0000)
   684     048E  0C1F               	rrf	31,w	;volatile
   685     048F  00CE               	movwf	??_main
   686     0490  0C4E               	rrf	??_main,w
   687     0491  390F               	andlw	15
   688     0492  3A00               	xorlw	0
   689     0493  1D03               	skipz
   690     0494  2C96               	goto	u1961
   691     0495  2C97               	goto	u1960
   692     0496                     u1961:
   693     0496  2C9C               	goto	l1620
   694     0497                     u1960:
   695     0497                     l1618:
   696                           
   697                           ;newmain.c: 137:             ADCON0bits.CHS = 0b0001;
   698     0497  081F               	movf	31,w	;volatile
   699     0498  39C3               	andlw	-61
   700     0499  3804               	iorlw	4
   701     049A  009F               	movwf	31	;volatile
   702     049B  2C9E               	goto	l1622
   703     049C                     l1620:
   704                           
   705                           ;newmain.c: 139:             ADCON0bits.CHS = 0b0000;
   706     049C  30C3               	movlw	-61
   707     049D  059F               	andwf	31,f	;volatile
   708     049E                     l1622:
   709                           
   710                           ;newmain.c: 140:            _delay((unsigned long)((100)*(8000000/4000000.0)));
   711     049E  3041               	movlw	65
   712     049F  1283               	bcf	3,5	;RP0=0, select bank0
   713     04A0  1303               	bcf	3,6	;RP1=0, select bank0
   714     04A1  00CE               	movwf	??_main
   715     04A2                     u1977:
   716     04A2  0BCE               	decfsz	??_main,f
   717     04A3  2CA2               	goto	u1977
   718     04A4  2CA5               	nop2
   719     04A5  2C31               	goto	l1602
   720     04A6  120A  118A  280C   	ljmp	start
   721     04A9                     __end_of_main:
   722                           
   723                           	psect	text1
   724     0689                     __ptext1:	
   725 ;; *************** function _setup *****************
   726 ;; Defined at:
   727 ;;		line 151 in file "newmain.c"
   728 ;; Parameters:    Size  Location     Type
   729 ;;		None
   730 ;; Auto vars:     Size  Location     Type
   731 ;;		None
   732 ;; Return value:  Size  Location     Type
   733 ;;                  1    wreg      void 
   734 ;; Registers used:
   735 ;;		wreg, status,2, status,0
   736 ;; Tracked objects:
   737 ;;		On entry : 0/0
   738 ;;		On exit  : 0/0
   739 ;;		Unchanged: 0/0
   740 ;; Data sizes:     COMMON   BANK0   BANK1   BANK3   BANK2
   741 ;;      Params:         0       0       0       0       0
   742 ;;      Locals:         0       0       0       0       0
   743 ;;      Temps:          2       0       0       0       0
   744 ;;      Totals:         2       0       0       0       0
   745 ;;Total ram usage:        2 bytes
   746 ;; Hardware stack levels used: 1
   747 ;; Hardware stack levels required when called: 1
   748 ;; This function calls:
   749 ;;		Nothing
   750 ;; This function is called by:
   751 ;;		_main
   752 ;; This function uses a non-reentrant model
   753 ;;
   754                           
   755     0689                     _setup:	
   756                           ;psect for function _setup
   757                           
   758     0689                     l1224:	
   759                           ;incstack = 0
   760                           ; Regs used in _setup: [wreg+status,2+status,0]
   761                           
   762                           
   763                           ;newmain.c: 152:     ANSEL = 0b00000011;
   764     0689  3003               	movlw	3
   765     068A  1683               	bsf	3,5	;RP0=1, select bank3
   766     068B  1703               	bsf	3,6	;RP1=1, select bank3
   767     068C  0088               	movwf	8	;volatile
   768     068D                     l1226:
   769                           
   770                           ;newmain.c: 154:     ANSELH = 0;
   771     068D  0189               	clrf	9	;volatile
   772     068E                     l1228:
   773                           
   774                           ;newmain.c: 156:     TRISA = 0b00000011;
   775     068E  3003               	movlw	3
   776     068F  1683               	bsf	3,5	;RP0=1, select bank1
   777     0690  1303               	bcf	3,6	;RP1=0, select bank1
   778     0691  0085               	movwf	5	;volatile
   779                           
   780                           ;newmain.c: 157:     TRISB = 0;
   781     0692  0186               	clrf	6	;volatile
   782                           
   783                           ;newmain.c: 158:     TRISC = 0;
   784     0693  0187               	clrf	7	;volatile
   785                           
   786                           ;newmain.c: 159:     TRISD = 0;
   787     0694  0188               	clrf	8	;volatile
   788                           
   789                           ;newmain.c: 160:     TRISE = 0;
   790     0695  0189               	clrf	9	;volatile
   791                           
   792                           ;newmain.c: 163:     PORTA = 0;
   793     0696  1283               	bcf	3,5	;RP0=0, select bank0
   794     0697  1303               	bcf	3,6	;RP1=0, select bank0
   795     0698  0185               	clrf	5	;volatile
   796                           
   797                           ;newmain.c: 164:     PORTB = 0;
   798     0699  0186               	clrf	6	;volatile
   799                           
   800                           ;newmain.c: 165:     PORTC = 0;
   801     069A  0187               	clrf	7	;volatile
   802                           
   803                           ;newmain.c: 166:     PORTD = 0;
   804     069B  0188               	clrf	8	;volatile
   805                           
   806                           ;newmain.c: 167:     PORTE = 0;
   807     069C  0189               	clrf	9	;volatile
   808     069D                     l1230:
   809                           
   810                           ;newmain.c: 169:     OSCCONbits.IRCF = 0b111 ;
   811     069D  3070               	movlw	112
   812     069E  1683               	bsf	3,5	;RP0=1, select bank1
   813     069F  1303               	bcf	3,6	;RP1=0, select bank1
   814     06A0  048F               	iorwf	15,f	;volatile
   815     06A1                     l1232:
   816                           
   817                           ;newmain.c: 170:     OSCCONbits.SCS = 1;
   818     06A1  140F               	bsf	15,0	;volatile
   819     06A2                     l1234:
   820                           
   821                           ;newmain.c: 174:     OPTION_REGbits.T0CS = 0;
   822     06A2  1281               	bcf	1,5	;volatile
   823     06A3                     l1236:
   824                           
   825                           ;newmain.c: 175:     OPTION_REGbits.PSA = 0;
   826     06A3  1181               	bcf	1,3	;volatile
   827     06A4                     l1238:
   828                           
   829                           ;newmain.c: 176:     OPTION_REGbits.PS2 = 1;
   830     06A4  1501               	bsf	1,2	;volatile
   831     06A5                     l1240:
   832                           
   833                           ;newmain.c: 177:     OPTION_REGbits.PS1 = 1;
   834     06A5  1481               	bsf	1,1	;volatile
   835     06A6                     l1242:
   836                           
   837                           ;newmain.c: 178:     OPTION_REGbits.PS0 = 1;
   838     06A6  1401               	bsf	1,0	;volatile
   839     06A7                     l1244:
   840                           
   841                           ;newmain.c: 179:     TMR0 = 216;
   842     06A7  30D8               	movlw	216
   843     06A8  1283               	bcf	3,5	;RP0=0, select bank0
   844     06A9  1303               	bcf	3,6	;RP1=0, select bank0
   845     06AA  0081               	movwf	1	;volatile
   846     06AB                     l1246:
   847                           
   848                           ;newmain.c: 182:     INTCONbits.T0IF = 0;
   849     06AB  110B               	bcf	11,2	;volatile
   850     06AC                     l1248:
   851                           
   852                           ;newmain.c: 183:     INTCONbits.T0IE = 1;
   853     06AC  168B               	bsf	11,5	;volatile
   854     06AD                     l1250:
   855                           
   856                           ;newmain.c: 184:     INTCONbits.GIE = 1;
   857     06AD  178B               	bsf	11,7	;volatile
   858     06AE                     l1252:
   859                           
   860                           ;newmain.c: 185:     INTCONbits.PEIE = 1;
   861     06AE  170B               	bsf	11,6	;volatile
   862     06AF                     l1254:
   863                           
   864                           ;newmain.c: 186:     PIE1bits.ADIE = 1;
   865     06AF  1683               	bsf	3,5	;RP0=1, select bank1
   866     06B0  1303               	bcf	3,6	;RP1=0, select bank1
   867     06B1  170C               	bsf	12,6	;volatile
   868     06B2                     l1256:
   869                           
   870                           ;newmain.c: 187:     PIR1bits.ADIF = 0;
   871     06B2  1283               	bcf	3,5	;RP0=0, select bank0
   872     06B3  1303               	bcf	3,6	;RP1=0, select bank0
   873     06B4  130C               	bcf	12,6	;volatile
   874     06B5                     l1258:
   875                           
   876                           ;newmain.c: 191:     ADCON0bits.ADCS = 0b10 ;
   877     06B5  081F               	movf	31,w	;volatile
   878     06B6  393F               	andlw	-193
   879     06B7  3880               	iorlw	128
   880     06B8  009F               	movwf	31	;volatile
   881     06B9                     l1260:
   882                           
   883                           ;newmain.c: 192:     ADCON0bits.CHS = 0b0000;
   884     06B9  30C3               	movlw	-61
   885     06BA  059F               	andwf	31,f	;volatile
   886     06BB                     l1262:
   887                           
   888                           ;newmain.c: 194:     _delay((unsigned long)((1)*(8000000/4000.0)));
   889     06BB  3003               	movlw	3
   890     06BC  00F5               	movwf	??_setup+1
   891     06BD  3097               	movlw	151
   892     06BE  00F4               	movwf	??_setup
   893     06BF                     u1987:
   894     06BF  0BF4               	decfsz	??_setup,f
   895     06C0  2EBF               	goto	u1987
   896     06C1  0BF5               	decfsz	??_setup+1,f
   897     06C2  2EBF               	goto	u1987
   898     06C3  2EC4               	nop2
   899     06C4                     l1264:
   900                           
   901                           ;newmain.c: 197:     ADCON1bits.ADFM = 0;
   902     06C4  1683               	bsf	3,5	;RP0=1, select bank1
   903     06C5  1303               	bcf	3,6	;RP1=0, select bank1
   904     06C6  139F               	bcf	31,7	;volatile
   905     06C7                     l1266:
   906                           
   907                           ;newmain.c: 198:     ADCON1bits.VCFG0 = 0;
   908     06C7  121F               	bcf	31,4	;volatile
   909     06C8                     l1268:
   910                           
   911                           ;newmain.c: 199:     ADCON1bits.VCFG1 = 0;
   912     06C8  129F               	bcf	31,5	;volatile
   913     06C9                     l1270:
   914                           
   915                           ;newmain.c: 200:     ADCON0bits.ADON = 1;
   916     06C9  1283               	bcf	3,5	;RP0=0, select bank0
   917     06CA  1303               	bcf	3,6	;RP1=0, select bank0
   918     06CB  141F               	bsf	31,0	;volatile
   919     06CC                     l1272:
   920                           
   921                           ;newmain.c: 201:     _delay((unsigned long)((100)*(8000000/4000000.0)));
   922     06CC  3042               	movlw	66
   923     06CD  00F4               	movwf	??_setup
   924     06CE                     u1997:
   925     06CE  0BF4               	decfsz	??_setup,f
   926     06CF  2ECE               	goto	u1997
   927     06D0  0000               	nop
   928     06D1                     l1274:
   929                           
   930                           ;newmain.c: 202:     ADIF = 0 ;
   931     06D1  1283               	bcf	3,5	;RP0=0, select bank0
   932     06D2  1303               	bcf	3,6	;RP1=0, select bank0
   933     06D3  130C               	bcf	12,6	;volatile
   934     06D4                     l97:
   935     06D4  0008               	return
   936     06D5                     __end_of_setup:
   937                           
   938                           	psect	text2
   939     063A                     __ptext2:	
   940 ;; *************** function _displays *****************
   941 ;; Defined at:
   942 ;;		line 206 in file "newmain.c"
   943 ;; Parameters:    Size  Location     Type
   944 ;;  numeros         2    4[BANK0 ] int 
   945 ;; Auto vars:     Size  Location     Type
   946 ;;		None
   947 ;; Return value:  Size  Location     Type
   948 ;;                  1    wreg      void 
   949 ;; Registers used:
   950 ;;		wreg, status,2, status,0, pclath, cstack
   951 ;; Tracked objects:
   952 ;;		On entry : 0/0
   953 ;;		On exit  : 0/0
   954 ;;		Unchanged: 0/0
   955 ;; Data sizes:     COMMON   BANK0   BANK1   BANK3   BANK2
   956 ;;      Params:         0       2       0       0       0
   957 ;;      Locals:         0       0       0       0       0
   958 ;;      Temps:          0       2       0       0       0
   959 ;;      Totals:         0       4       0       0       0
   960 ;;Total ram usage:        4 bytes
   961 ;; Hardware stack levels used: 1
   962 ;; Hardware stack levels required when called: 2
   963 ;; This function calls:
   964 ;;		___awdiv
   965 ;;		___awmod
   966 ;; This function is called by:
   967 ;;		_main
   968 ;; This function uses a non-reentrant model
   969 ;;
   970                           
   971     063A                     _displays:	
   972                           ;psect for function _displays
   973                           
   974     063A                     l1276:	
   975                           ;incstack = 0
   976                           ; Regs used in _displays: [wreg+status,2+status,0+pclath+cstack]
   977                           
   978                           
   979                           ;newmain.c: 207:     centenas = (uint8_t)(numeros/100);
   980     063A  3064               	movlw	100
   981     063B  00F4               	movwf	___awdiv@divisor
   982     063C  3000               	movlw	0
   983     063D  00F5               	movwf	___awdiv@divisor+1
   984     063E  1283               	bcf	3,5	;RP0=0, select bank0
   985     063F  1303               	bcf	3,6	;RP1=0, select bank0
   986     0640  0825               	movf	displays@numeros+1,w
   987     0641  00F7               	movwf	___awdiv@dividend+1
   988     0642  0824               	movf	displays@numeros,w
   989     0643  00F6               	movwf	___awdiv@dividend
   990     0644  120A  118A  2521  120A  118A  	fcall	___awdiv
   991     0649  0874               	movf	?___awdiv,w
   992     064A  1283               	bcf	3,5	;RP0=0, select bank0
   993     064B  1303               	bcf	3,6	;RP1=0, select bank0
   994     064C  00E9               	movwf	_centenas
   995                           
   996                           ;newmain.c: 208:     residuo = numeros%100;
   997     064D  3064               	movlw	100
   998     064E  00F4               	movwf	___awmod@divisor
   999     064F  3000               	movlw	0
  1000     0650  00F5               	movwf	___awmod@divisor+1
  1001     0651  0825               	movf	displays@numeros+1,w
  1002     0652  00F7               	movwf	___awmod@dividend+1
  1003     0653  0824               	movf	displays@numeros,w
  1004     0654  00F6               	movwf	___awmod@dividend
  1005     0655  120A  118A  258A  120A  118A  	fcall	___awmod
  1006     065A  0874               	movf	?___awmod,w
  1007     065B  1283               	bcf	3,5	;RP0=0, select bank0
  1008     065C  1303               	bcf	3,6	;RP1=0, select bank0
  1009     065D  00E6               	movwf	_residuo
  1010                           
  1011                           ;newmain.c: 210:     decenas = residuo/10;
  1012     065E  300A               	movlw	10
  1013     065F  00F4               	movwf	___awdiv@divisor
  1014     0660  3000               	movlw	0
  1015     0661  00F5               	movwf	___awdiv@divisor+1
  1016     0662  0866               	movf	_residuo,w
  1017     0663  00A6               	movwf	??_displays
  1018     0664  01A7               	clrf	??_displays+1
  1019     0665  0826               	movf	??_displays,w
  1020     0666  00F6               	movwf	___awdiv@dividend
  1021     0667  0827               	movf	??_displays+1,w
  1022     0668  00F7               	movwf	___awdiv@dividend+1
  1023     0669  120A  118A  2521  120A  118A  	fcall	___awdiv
  1024     066E  0874               	movf	?___awdiv,w
  1025     066F  1283               	bcf	3,5	;RP0=0, select bank0
  1026     0670  1303               	bcf	3,6	;RP1=0, select bank0
  1027     0671  00E8               	movwf	_decenas
  1028                           
  1029                           ;newmain.c: 211:     residuo = residuo%10;
  1030     0672  300A               	movlw	10
  1031     0673  00F4               	movwf	___awmod@divisor
  1032     0674  3000               	movlw	0
  1033     0675  00F5               	movwf	___awmod@divisor+1
  1034     0676  0866               	movf	_residuo,w
  1035     0677  00A6               	movwf	??_displays
  1036     0678  01A7               	clrf	??_displays+1
  1037     0679  0826               	movf	??_displays,w
  1038     067A  00F6               	movwf	___awmod@dividend
  1039     067B  0827               	movf	??_displays+1,w
  1040     067C  00F7               	movwf	___awmod@dividend+1
  1041     067D  120A  118A  258A  120A  118A  	fcall	___awmod
  1042     0682  0874               	movf	?___awmod,w
  1043     0683  1283               	bcf	3,5	;RP0=0, select bank0
  1044     0684  1303               	bcf	3,6	;RP1=0, select bank0
  1045     0685  00E6               	movwf	_residuo
  1046     0686                     l1278:
  1047                           
  1048                           ;newmain.c: 213:     unidades = residuo;
  1049     0686  0866               	movf	_residuo,w
  1050     0687  00E7               	movwf	_unidades
  1051     0688                     l100:
  1052     0688  0008               	return
  1053     0689                     __end_of_displays:
  1054                           
  1055                           	psect	text3
  1056     058A                     __ptext3:	
  1057 ;; *************** function ___awmod *****************
  1058 ;; Defined at:
  1059 ;;		line 5 in file "C:\Program Files\Microchip\xc8\v2.40\pic\sources\c90\common\awmod.c"
  1060 ;; Parameters:    Size  Location     Type
  1061 ;;  divisor         2    4[COMMON] int 
  1062 ;;  dividend        2    6[COMMON] int 
  1063 ;; Auto vars:     Size  Location     Type
  1064 ;;  sign            1    1[BANK0 ] unsigned char 
  1065 ;;  counter         1    0[BANK0 ] unsigned char 
  1066 ;; Return value:  Size  Location     Type
  1067 ;;                  2    4[COMMON] int 
  1068 ;; Registers used:
  1069 ;;		wreg, status,2, status,0
  1070 ;; Tracked objects:
  1071 ;;		On entry : 0/0
  1072 ;;		On exit  : 0/0
  1073 ;;		Unchanged: 0/0
  1074 ;; Data sizes:     COMMON   BANK0   BANK1   BANK3   BANK2
  1075 ;;      Params:         4       0       0       0       0
  1076 ;;      Locals:         0       2       0       0       0
  1077 ;;      Temps:          1       0       0       0       0
  1078 ;;      Totals:         5       2       0       0       0
  1079 ;;Total ram usage:        7 bytes
  1080 ;; Hardware stack levels used: 1
  1081 ;; Hardware stack levels required when called: 1
  1082 ;; This function calls:
  1083 ;;		Nothing
  1084 ;; This function is called by:
  1085 ;;		_displays
  1086 ;; This function uses a non-reentrant model
  1087 ;;
  1088                           
  1089     058A                     ___awmod:	
  1090                           ;psect for function ___awmod
  1091                           
  1092     058A                     l1172:	
  1093                           ;incstack = 0
  1094                           ; Regs used in ___awmod: [wreg+status,2+status,0]
  1095                           
  1096     058A  1283               	bcf	3,5	;RP0=0, select bank0
  1097     058B  1303               	bcf	3,6	;RP1=0, select bank0
  1098     058C  01A1               	clrf	___awmod@sign
  1099     058D                     l1174:
  1100     058D  1FF7               	btfss	___awmod@dividend+1,7
  1101     058E  2D90               	goto	u1031
  1102     058F  2D91               	goto	u1030
  1103     0590                     u1031:
  1104     0590  2D98               	goto	l1180
  1105     0591                     u1030:
  1106     0591                     l1176:
  1107     0591  09F6               	comf	___awmod@dividend,f
  1108     0592  09F7               	comf	___awmod@dividend+1,f
  1109     0593  0AF6               	incf	___awmod@dividend,f
  1110     0594  1903               	skipnz
  1111     0595  0AF7               	incf	___awmod@dividend+1,f
  1112     0596                     l1178:
  1113     0596  01A1               	clrf	___awmod@sign
  1114     0597  0AA1               	incf	___awmod@sign,f
  1115     0598                     l1180:
  1116     0598  1FF5               	btfss	___awmod@divisor+1,7
  1117     0599  2D9B               	goto	u1041
  1118     059A  2D9C               	goto	u1040
  1119     059B                     u1041:
  1120     059B  2DA1               	goto	l1184
  1121     059C                     u1040:
  1122     059C                     l1182:
  1123     059C  09F4               	comf	___awmod@divisor,f
  1124     059D  09F5               	comf	___awmod@divisor+1,f
  1125     059E  0AF4               	incf	___awmod@divisor,f
  1126     059F  1903               	skipnz
  1127     05A0  0AF5               	incf	___awmod@divisor+1,f
  1128     05A1                     l1184:
  1129     05A1  0874               	movf	___awmod@divisor,w
  1130     05A2  0475               	iorwf	___awmod@divisor+1,w
  1131     05A3  1903               	btfsc	3,2
  1132     05A4  2DA6               	goto	u1051
  1133     05A5  2DA7               	goto	u1050
  1134     05A6                     u1051:
  1135     05A6  2DD6               	goto	l1202
  1136     05A7                     u1050:
  1137     05A7                     l1186:
  1138     05A7  01A0               	clrf	___awmod@counter
  1139     05A8  0AA0               	incf	___awmod@counter,f
  1140     05A9  2DB5               	goto	l1192
  1141     05AA                     l1188:
  1142     05AA  3001               	movlw	1
  1143     05AB                     u1065:
  1144     05AB  1003               	clrc
  1145     05AC  0DF4               	rlf	___awmod@divisor,f
  1146     05AD  0DF5               	rlf	___awmod@divisor+1,f
  1147     05AE  3EFF               	addlw	-1
  1148     05AF  1D03               	skipz
  1149     05B0  2DAB               	goto	u1065
  1150     05B1                     l1190:
  1151     05B1  3001               	movlw	1
  1152     05B2  00F8               	movwf	??___awmod
  1153     05B3  0878               	movf	??___awmod,w
  1154     05B4  07A0               	addwf	___awmod@counter,f
  1155     05B5                     l1192:
  1156     05B5  1FF5               	btfss	___awmod@divisor+1,7
  1157     05B6  2DB8               	goto	u1071
  1158     05B7  2DB9               	goto	u1070
  1159     05B8                     u1071:
  1160     05B8  2DAA               	goto	l1188
  1161     05B9                     u1070:
  1162     05B9                     l1194:
  1163     05B9  0875               	movf	___awmod@divisor+1,w
  1164     05BA  0277               	subwf	___awmod@dividend+1,w
  1165     05BB  1D03               	skipz
  1166     05BC  2DBF               	goto	u1085
  1167     05BD  0874               	movf	___awmod@divisor,w
  1168     05BE  0276               	subwf	___awmod@dividend,w
  1169     05BF                     u1085:
  1170     05BF  1C03               	skipc
  1171     05C0  2DC2               	goto	u1081
  1172     05C1  2DC3               	goto	u1080
  1173     05C2                     u1081:
  1174     05C2  2DC9               	goto	l1198
  1175     05C3                     u1080:
  1176     05C3                     l1196:
  1177     05C3  0874               	movf	___awmod@divisor,w
  1178     05C4  02F6               	subwf	___awmod@dividend,f
  1179     05C5  0875               	movf	___awmod@divisor+1,w
  1180     05C6  1C03               	skipc
  1181     05C7  03F7               	decf	___awmod@dividend+1,f
  1182     05C8  02F7               	subwf	___awmod@dividend+1,f
  1183     05C9                     l1198:
  1184     05C9  3001               	movlw	1
  1185     05CA                     u1095:
  1186     05CA  1003               	clrc
  1187     05CB  0CF5               	rrf	___awmod@divisor+1,f
  1188     05CC  0CF4               	rrf	___awmod@divisor,f
  1189     05CD  3EFF               	addlw	-1
  1190     05CE  1D03               	skipz
  1191     05CF  2DCA               	goto	u1095
  1192     05D0                     l1200:
  1193     05D0  3001               	movlw	1
  1194     05D1  02A0               	subwf	___awmod@counter,f
  1195     05D2  1D03               	btfss	3,2
  1196     05D3  2DD5               	goto	u1101
  1197     05D4  2DD6               	goto	u1100
  1198     05D5                     u1101:
  1199     05D5  2DB9               	goto	l1194
  1200     05D6                     u1100:
  1201     05D6                     l1202:
  1202     05D6  0821               	movf	___awmod@sign,w
  1203     05D7  1903               	btfsc	3,2
  1204     05D8  2DDA               	goto	u1111
  1205     05D9  2DDB               	goto	u1110
  1206     05DA                     u1111:
  1207     05DA  2DE0               	goto	l1206
  1208     05DB                     u1110:
  1209     05DB                     l1204:
  1210     05DB  09F6               	comf	___awmod@dividend,f
  1211     05DC  09F7               	comf	___awmod@dividend+1,f
  1212     05DD  0AF6               	incf	___awmod@dividend,f
  1213     05DE  1903               	skipnz
  1214     05DF  0AF7               	incf	___awmod@dividend+1,f
  1215     05E0                     l1206:
  1216     05E0  0877               	movf	___awmod@dividend+1,w
  1217     05E1  00F5               	movwf	?___awmod+1
  1218     05E2  0876               	movf	___awmod@dividend,w
  1219     05E3  00F4               	movwf	?___awmod
  1220     05E4                     l352:
  1221     05E4  0008               	return
  1222     05E5                     __end_of___awmod:
  1223                           
  1224                           	psect	text4
  1225     0521                     __ptext4:	
  1226 ;; *************** function ___awdiv *****************
  1227 ;; Defined at:
  1228 ;;		line 5 in file "C:\Program Files\Microchip\xc8\v2.40\pic\sources\c90\common\awdiv.c"
  1229 ;; Parameters:    Size  Location     Type
  1230 ;;  divisor         2    4[COMMON] int 
  1231 ;;  dividend        2    6[COMMON] int 
  1232 ;; Auto vars:     Size  Location     Type
  1233 ;;  quotient        2    2[BANK0 ] int 
  1234 ;;  sign            1    1[BANK0 ] unsigned char 
  1235 ;;  counter         1    0[BANK0 ] unsigned char 
  1236 ;; Return value:  Size  Location     Type
  1237 ;;                  2    4[COMMON] int 
  1238 ;; Registers used:
  1239 ;;		wreg, status,2, status,0
  1240 ;; Tracked objects:
  1241 ;;		On entry : 0/0
  1242 ;;		On exit  : 0/0
  1243 ;;		Unchanged: 0/0
  1244 ;; Data sizes:     COMMON   BANK0   BANK1   BANK3   BANK2
  1245 ;;      Params:         4       0       0       0       0
  1246 ;;      Locals:         0       4       0       0       0
  1247 ;;      Temps:          1       0       0       0       0
  1248 ;;      Totals:         5       4       0       0       0
  1249 ;;Total ram usage:        9 bytes
  1250 ;; Hardware stack levels used: 1
  1251 ;; Hardware stack levels required when called: 1
  1252 ;; This function calls:
  1253 ;;		Nothing
  1254 ;; This function is called by:
  1255 ;;		_displays
  1256 ;; This function uses a non-reentrant model
  1257 ;;
  1258                           
  1259     0521                     ___awdiv:	
  1260                           ;psect for function ___awdiv
  1261                           
  1262     0521                     l1128:	
  1263                           ;incstack = 0
  1264                           ; Regs used in ___awdiv: [wreg+status,2+status,0]
  1265                           
  1266     0521  1283               	bcf	3,5	;RP0=0, select bank0
  1267     0522  1303               	bcf	3,6	;RP1=0, select bank0
  1268     0523  01A1               	clrf	___awdiv@sign
  1269     0524                     l1130:
  1270     0524  1FF5               	btfss	___awdiv@divisor+1,7
  1271     0525  2D27               	goto	u931
  1272     0526  2D28               	goto	u930
  1273     0527                     u931:
  1274     0527  2D2F               	goto	l1136
  1275     0528                     u930:
  1276     0528                     l1132:
  1277     0528  09F4               	comf	___awdiv@divisor,f
  1278     0529  09F5               	comf	___awdiv@divisor+1,f
  1279     052A  0AF4               	incf	___awdiv@divisor,f
  1280     052B  1903               	skipnz
  1281     052C  0AF5               	incf	___awdiv@divisor+1,f
  1282     052D                     l1134:
  1283     052D  01A1               	clrf	___awdiv@sign
  1284     052E  0AA1               	incf	___awdiv@sign,f
  1285     052F                     l1136:
  1286     052F  1FF7               	btfss	___awdiv@dividend+1,7
  1287     0530  2D32               	goto	u941
  1288     0531  2D33               	goto	u940
  1289     0532                     u941:
  1290     0532  2D3C               	goto	l1142
  1291     0533                     u940:
  1292     0533                     l1138:
  1293     0533  09F6               	comf	___awdiv@dividend,f
  1294     0534  09F7               	comf	___awdiv@dividend+1,f
  1295     0535  0AF6               	incf	___awdiv@dividend,f
  1296     0536  1903               	skipnz
  1297     0537  0AF7               	incf	___awdiv@dividend+1,f
  1298     0538                     l1140:
  1299     0538  3001               	movlw	1
  1300     0539  00F8               	movwf	??___awdiv
  1301     053A  0878               	movf	??___awdiv,w
  1302     053B  06A1               	xorwf	___awdiv@sign,f
  1303     053C                     l1142:
  1304     053C  01A2               	clrf	___awdiv@quotient
  1305     053D  01A3               	clrf	___awdiv@quotient+1
  1306     053E                     l1144:
  1307     053E  0874               	movf	___awdiv@divisor,w
  1308     053F  0475               	iorwf	___awdiv@divisor+1,w
  1309     0540  1903               	btfsc	3,2
  1310     0541  2D43               	goto	u951
  1311     0542  2D44               	goto	u950
  1312     0543                     u951:
  1313     0543  2D7B               	goto	l1164
  1314     0544                     u950:
  1315     0544                     l1146:
  1316     0544  01A0               	clrf	___awdiv@counter
  1317     0545  0AA0               	incf	___awdiv@counter,f
  1318     0546  2D52               	goto	l1152
  1319     0547                     l1148:
  1320     0547  3001               	movlw	1
  1321     0548                     u965:
  1322     0548  1003               	clrc
  1323     0549  0DF4               	rlf	___awdiv@divisor,f
  1324     054A  0DF5               	rlf	___awdiv@divisor+1,f
  1325     054B  3EFF               	addlw	-1
  1326     054C  1D03               	skipz
  1327     054D  2D48               	goto	u965
  1328     054E                     l1150:
  1329     054E  3001               	movlw	1
  1330     054F  00F8               	movwf	??___awdiv
  1331     0550  0878               	movf	??___awdiv,w
  1332     0551  07A0               	addwf	___awdiv@counter,f
  1333     0552                     l1152:
  1334     0552  1FF5               	btfss	___awdiv@divisor+1,7
  1335     0553  2D55               	goto	u971
  1336     0554  2D56               	goto	u970
  1337     0555                     u971:
  1338     0555  2D47               	goto	l1148
  1339     0556                     u970:
  1340     0556                     l1154:
  1341     0556  3001               	movlw	1
  1342     0557                     u985:
  1343     0557  1003               	clrc
  1344     0558  0DA2               	rlf	___awdiv@quotient,f
  1345     0559  0DA3               	rlf	___awdiv@quotient+1,f
  1346     055A  3EFF               	addlw	-1
  1347     055B  1D03               	skipz
  1348     055C  2D57               	goto	u985
  1349     055D  0875               	movf	___awdiv@divisor+1,w
  1350     055E  0277               	subwf	___awdiv@dividend+1,w
  1351     055F  1D03               	skipz
  1352     0560  2D63               	goto	u995
  1353     0561  0874               	movf	___awdiv@divisor,w
  1354     0562  0276               	subwf	___awdiv@dividend,w
  1355     0563                     u995:
  1356     0563  1C03               	skipc
  1357     0564  2D66               	goto	u991
  1358     0565  2D67               	goto	u990
  1359     0566                     u991:
  1360     0566  2D6E               	goto	l1160
  1361     0567                     u990:
  1362     0567                     l1156:
  1363     0567  0874               	movf	___awdiv@divisor,w
  1364     0568  02F6               	subwf	___awdiv@dividend,f
  1365     0569  0875               	movf	___awdiv@divisor+1,w
  1366     056A  1C03               	skipc
  1367     056B  03F7               	decf	___awdiv@dividend+1,f
  1368     056C  02F7               	subwf	___awdiv@dividend+1,f
  1369     056D                     l1158:
  1370     056D  1422               	bsf	___awdiv@quotient,0
  1371     056E                     l1160:
  1372     056E  3001               	movlw	1
  1373     056F                     u1005:
  1374     056F  1003               	clrc
  1375     0570  0CF5               	rrf	___awdiv@divisor+1,f
  1376     0571  0CF4               	rrf	___awdiv@divisor,f
  1377     0572  3EFF               	addlw	-1
  1378     0573  1D03               	skipz
  1379     0574  2D6F               	goto	u1005
  1380     0575                     l1162:
  1381     0575  3001               	movlw	1
  1382     0576  02A0               	subwf	___awdiv@counter,f
  1383     0577  1D03               	btfss	3,2
  1384     0578  2D7A               	goto	u1011
  1385     0579  2D7B               	goto	u1010
  1386     057A                     u1011:
  1387     057A  2D56               	goto	l1154
  1388     057B                     u1010:
  1389     057B                     l1164:
  1390     057B  0821               	movf	___awdiv@sign,w
  1391     057C  1903               	btfsc	3,2
  1392     057D  2D7F               	goto	u1021
  1393     057E  2D80               	goto	u1020
  1394     057F                     u1021:
  1395     057F  2D85               	goto	l1168
  1396     0580                     u1020:
  1397     0580                     l1166:
  1398     0580  09A2               	comf	___awdiv@quotient,f
  1399     0581  09A3               	comf	___awdiv@quotient+1,f
  1400     0582  0AA2               	incf	___awdiv@quotient,f
  1401     0583  1903               	skipnz
  1402     0584  0AA3               	incf	___awdiv@quotient+1,f
  1403     0585                     l1168:
  1404     0585  0823               	movf	___awdiv@quotient+1,w
  1405     0586  00F5               	movwf	?___awdiv+1
  1406     0587  0822               	movf	___awdiv@quotient,w
  1407     0588  00F4               	movwf	?___awdiv
  1408     0589                     l339:
  1409     0589  0008               	return
  1410     058A                     __end_of___awdiv:
  1411                           
  1412                           	psect	text5
  1413     0372                     __ptext5:	
  1414 ;; *************** function ___xxtofl *****************
  1415 ;; Defined at:
  1416 ;;		line 10 in file "C:\Program Files\Microchip\xc8\v2.40\pic\sources\c90\common\xxtofl.c"
  1417 ;; Parameters:    Size  Location     Type
  1418 ;;  sign            1    wreg     unsigned char 
  1419 ;;  val             4    4[COMMON] long 
  1420 ;; Auto vars:     Size  Location     Type
  1421 ;;  sign            1    4[BANK0 ] unsigned char 
  1422 ;;  arg             4    6[BANK0 ] unsigned long 
  1423 ;;  exp             1    5[BANK0 ] unsigned char 
  1424 ;; Return value:  Size  Location     Type
  1425 ;;                  4    4[COMMON] unsigned char 
  1426 ;; Registers used:
  1427 ;;		wreg, status,2, status,0
  1428 ;; Tracked objects:
  1429 ;;		On entry : 0/0
  1430 ;;		On exit  : 0/0
  1431 ;;		Unchanged: 0/0
  1432 ;; Data sizes:     COMMON   BANK0   BANK1   BANK3   BANK2
  1433 ;;      Params:         4       0       0       0       0
  1434 ;;      Locals:         0       6       0       0       0
  1435 ;;      Temps:          0       4       0       0       0
  1436 ;;      Totals:         4      10       0       0       0
  1437 ;;Total ram usage:       14 bytes
  1438 ;; Hardware stack levels used: 1
  1439 ;; Hardware stack levels required when called: 1
  1440 ;; This function calls:
  1441 ;;		Nothing
  1442 ;; This function is called by:
  1443 ;;		_main
  1444 ;; This function uses a non-reentrant model
  1445 ;;
  1446                           
  1447     0372                     ___xxtofl:	
  1448                           ;psect for function ___xxtofl
  1449                           
  1450                           
  1451                           ;incstack = 0
  1452                           ; Regs used in ___xxtofl: [wreg+status,2+status,0]
  1453                           ;___xxtofl@sign stored from wreg
  1454     0372  1283               	bcf	3,5	;RP0=0, select bank0
  1455     0373  1303               	bcf	3,6	;RP1=0, select bank0
  1456     0374  00A4               	movwf	___xxtofl@sign
  1457     0375                     l1458:
  1458     0375  0824               	movf	___xxtofl@sign,w
  1459     0376  1903               	btfsc	3,2
  1460     0377  2B79               	goto	u1621
  1461     0378  2B7A               	goto	u1620
  1462     0379                     u1621:
  1463     0379  2B8E               	goto	l1464
  1464     037A                     u1620:
  1465     037A                     l1460:
  1466     037A  1FF7               	btfss	___xxtofl@val+3,7
  1467     037B  2B7D               	goto	u1631
  1468     037C  2B7E               	goto	u1630
  1469     037D                     u1631:
  1470     037D  2B8E               	goto	l1464
  1471     037E                     u1630:
  1472     037E                     l1462:
  1473     037E  0974               	comf	___xxtofl@val,w
  1474     037F  00A6               	movwf	___xxtofl@arg
  1475     0380  0975               	comf	___xxtofl@val+1,w
  1476     0381  00A7               	movwf	___xxtofl@arg+1
  1477     0382  0976               	comf	___xxtofl@val+2,w
  1478     0383  00A8               	movwf	___xxtofl@arg+2
  1479     0384  0977               	comf	___xxtofl@val+3,w
  1480     0385  00A9               	movwf	___xxtofl@arg+3
  1481     0386  0AA6               	incf	___xxtofl@arg,f
  1482     0387  1903               	skipnz
  1483     0388  0AA7               	incf	___xxtofl@arg+1,f
  1484     0389  1903               	skipnz
  1485     038A  0AA8               	incf	___xxtofl@arg+2,f
  1486     038B  1903               	skipnz
  1487     038C  0AA9               	incf	___xxtofl@arg+3,f
  1488     038D  2B96               	goto	l619
  1489     038E                     l1464:
  1490     038E  0877               	movf	___xxtofl@val+3,w
  1491     038F  00A9               	movwf	___xxtofl@arg+3
  1492     0390  0876               	movf	___xxtofl@val+2,w
  1493     0391  00A8               	movwf	___xxtofl@arg+2
  1494     0392  0875               	movf	___xxtofl@val+1,w
  1495     0393  00A7               	movwf	___xxtofl@arg+1
  1496     0394  0874               	movf	___xxtofl@val,w
  1497     0395  00A6               	movwf	___xxtofl@arg
  1498     0396                     l619:
  1499     0396  0877               	movf	___xxtofl@val+3,w
  1500     0397  0476               	iorwf	___xxtofl@val+2,w
  1501     0398  0475               	iorwf	___xxtofl@val+1,w
  1502     0399  0474               	iorwf	___xxtofl@val,w
  1503     039A  1D03               	skipz
  1504     039B  2B9D               	goto	u1641
  1505     039C  2B9E               	goto	u1640
  1506     039D                     u1641:
  1507     039D  2BA7               	goto	l1470
  1508     039E                     u1640:
  1509     039E                     l1466:
  1510     039E  3000               	movlw	0
  1511     039F  00F7               	movwf	?___xxtofl+3
  1512     03A0  3000               	movlw	0
  1513     03A1  00F6               	movwf	?___xxtofl+2
  1514     03A2  3000               	movlw	0
  1515     03A3  00F5               	movwf	?___xxtofl+1
  1516     03A4  3000               	movlw	0
  1517     03A5  00F4               	movwf	?___xxtofl
  1518     03A6  2C2B               	goto	l621
  1519     03A7                     l1470:
  1520     03A7  3096               	movlw	150
  1521     03A8  00A5               	movwf	___xxtofl@exp
  1522     03A9  2BB7               	goto	l1474
  1523     03AA                     l1472:
  1524     03AA  3001               	movlw	1
  1525     03AB  00A0               	movwf	??___xxtofl
  1526     03AC  0820               	movf	??___xxtofl,w
  1527     03AD  07A5               	addwf	___xxtofl@exp,f
  1528     03AE  3001               	movlw	1
  1529     03AF                     u1655:
  1530     03AF  1003               	clrc
  1531     03B0  0CA9               	rrf	___xxtofl@arg+3,f
  1532     03B1  0CA8               	rrf	___xxtofl@arg+2,f
  1533     03B2  0CA7               	rrf	___xxtofl@arg+1,f
  1534     03B3  0CA6               	rrf	___xxtofl@arg,f
  1535     03B4  3EFF               	addlw	-1
  1536     03B5  1D03               	skipz
  1537     03B6  2BAF               	goto	u1655
  1538     03B7                     l1474:
  1539     03B7  30FE               	movlw	254
  1540     03B8  0529               	andwf	___xxtofl@arg+3,w
  1541     03B9  1D03               	btfss	3,2
  1542     03BA  2BBC               	goto	u1661
  1543     03BB  2BBD               	goto	u1660
  1544     03BC                     u1661:
  1545     03BC  2BAA               	goto	l1472
  1546     03BD                     u1660:
  1547     03BD  2BD9               	goto	l625
  1548     03BE                     l1476:
  1549     03BE  3001               	movlw	1
  1550     03BF  00A0               	movwf	??___xxtofl
  1551     03C0  0820               	movf	??___xxtofl,w
  1552     03C1  07A5               	addwf	___xxtofl@exp,f
  1553     03C2                     l1478:
  1554     03C2  3001               	movlw	1
  1555     03C3  07A6               	addwf	___xxtofl@arg,f
  1556     03C4  3000               	movlw	0
  1557     03C5  1803               	skipnc
  1558     03C6  3001               	movlw	1
  1559     03C7  07A7               	addwf	___xxtofl@arg+1,f
  1560     03C8  3000               	movlw	0
  1561     03C9  1803               	skipnc
  1562     03CA  3001               	movlw	1
  1563     03CB  07A8               	addwf	___xxtofl@arg+2,f
  1564     03CC  3000               	movlw	0
  1565     03CD  1803               	skipnc
  1566     03CE  3001               	movlw	1
  1567     03CF  07A9               	addwf	___xxtofl@arg+3,f
  1568     03D0                     l1480:
  1569     03D0  3001               	movlw	1
  1570     03D1                     u1675:
  1571     03D1  1003               	clrc
  1572     03D2  0CA9               	rrf	___xxtofl@arg+3,f
  1573     03D3  0CA8               	rrf	___xxtofl@arg+2,f
  1574     03D4  0CA7               	rrf	___xxtofl@arg+1,f
  1575     03D5  0CA6               	rrf	___xxtofl@arg,f
  1576     03D6  3EFF               	addlw	-1
  1577     03D7  1D03               	skipz
  1578     03D8  2BD1               	goto	u1675
  1579     03D9                     l625:
  1580     03D9  30FF               	movlw	255
  1581     03DA  0529               	andwf	___xxtofl@arg+3,w
  1582     03DB  1D03               	btfss	3,2
  1583     03DC  2BDE               	goto	u1681
  1584     03DD  2BDF               	goto	u1680
  1585     03DE                     u1681:
  1586     03DE  2BBE               	goto	l1476
  1587     03DF                     u1680:
  1588     03DF  2BEB               	goto	l1484
  1589     03E0                     l1482:
  1590     03E0  3001               	movlw	1
  1591     03E1  02A5               	subwf	___xxtofl@exp,f
  1592     03E2  3001               	movlw	1
  1593     03E3  00A0               	movwf	??___xxtofl
  1594     03E4                     u1695:
  1595     03E4  1003               	clrc
  1596     03E5  0DA6               	rlf	___xxtofl@arg,f
  1597     03E6  0DA7               	rlf	___xxtofl@arg+1,f
  1598     03E7  0DA8               	rlf	___xxtofl@arg+2,f
  1599     03E8  0DA9               	rlf	___xxtofl@arg+3,f
  1600     03E9  0BA0               	decfsz	??___xxtofl,f
  1601     03EA  2BE4               	goto	u1695
  1602     03EB                     l1484:
  1603     03EB  1BA8               	btfsc	___xxtofl@arg+2,7
  1604     03EC  2BEE               	goto	u1701
  1605     03ED  2BEF               	goto	u1700
  1606     03EE                     u1701:
  1607     03EE  2BF5               	goto	l632
  1608     03EF                     u1700:
  1609     03EF                     l1486:
  1610     03EF  3002               	movlw	2
  1611     03F0  0225               	subwf	___xxtofl@exp,w
  1612     03F1  1803               	skipnc
  1613     03F2  2BF4               	goto	u1711
  1614     03F3  2BF5               	goto	u1710
  1615     03F4                     u1711:
  1616     03F4  2BE0               	goto	l1482
  1617     03F5                     u1710:
  1618     03F5                     l632:
  1619     03F5  1825               	btfsc	___xxtofl@exp,0
  1620     03F6  2BF8               	goto	u1721
  1621     03F7  2BF9               	goto	u1720
  1622     03F8                     u1721:
  1623     03F8  2C01               	goto	l633
  1624     03F9                     u1720:
  1625     03F9                     l1488:
  1626     03F9  30FF               	movlw	255
  1627     03FA  05A6               	andwf	___xxtofl@arg,f
  1628     03FB  30FF               	movlw	255
  1629     03FC  05A7               	andwf	___xxtofl@arg+1,f
  1630     03FD  307F               	movlw	127
  1631     03FE  05A8               	andwf	___xxtofl@arg+2,f
  1632     03FF  30FF               	movlw	255
  1633     0400  05A9               	andwf	___xxtofl@arg+3,f
  1634     0401                     l633:
  1635     0401  1003               	clrc
  1636     0402  0CA5               	rrf	___xxtofl@exp,f
  1637     0403                     l1490:
  1638     0403  0825               	movf	___xxtofl@exp,w
  1639     0404  00A0               	movwf	??___xxtofl
  1640     0405  01A1               	clrf	??___xxtofl+1
  1641     0406  01A2               	clrf	??___xxtofl+2
  1642     0407  01A3               	clrf	??___xxtofl+3
  1643     0408  3018               	movlw	24
  1644     0409                     u1735:
  1645     0409  1003               	clrc
  1646     040A  0DA0               	rlf	??___xxtofl,f
  1647     040B  0DA1               	rlf	??___xxtofl+1,f
  1648     040C  0DA2               	rlf	??___xxtofl+2,f
  1649     040D  0DA3               	rlf	??___xxtofl+3,f
  1650     040E                     u1730:
  1651     040E  3EFF               	addlw	-1
  1652     040F  1D03               	skipz
  1653     0410  2C09               	goto	u1735
  1654     0411  0820               	movf	??___xxtofl,w
  1655     0412  04A6               	iorwf	___xxtofl@arg,f
  1656     0413  0821               	movf	??___xxtofl+1,w
  1657     0414  04A7               	iorwf	___xxtofl@arg+1,f
  1658     0415  0822               	movf	??___xxtofl+2,w
  1659     0416  04A8               	iorwf	___xxtofl@arg+2,f
  1660     0417  0823               	movf	??___xxtofl+3,w
  1661     0418  04A9               	iorwf	___xxtofl@arg+3,f
  1662     0419                     l1492:
  1663     0419  0824               	movf	___xxtofl@sign,w
  1664     041A  1903               	btfsc	3,2
  1665     041B  2C1D               	goto	u1741
  1666     041C  2C1E               	goto	u1740
  1667     041D                     u1741:
  1668     041D  2C23               	goto	l1498
  1669     041E                     u1740:
  1670     041E                     l1494:
  1671     041E  1FF7               	btfss	___xxtofl@val+3,7
  1672     041F  2C21               	goto	u1751
  1673     0420  2C22               	goto	u1750
  1674     0421                     u1751:
  1675     0421  2C23               	goto	l1498
  1676     0422                     u1750:
  1677     0422                     l1496:
  1678     0422  17A9               	bsf	___xxtofl@arg+3,7
  1679     0423                     l1498:
  1680     0423  0829               	movf	___xxtofl@arg+3,w
  1681     0424  00F7               	movwf	?___xxtofl+3
  1682     0425  0828               	movf	___xxtofl@arg+2,w
  1683     0426  00F6               	movwf	?___xxtofl+2
  1684     0427  0827               	movf	___xxtofl@arg+1,w
  1685     0428  00F5               	movwf	?___xxtofl+1
  1686     0429  0826               	movf	___xxtofl@arg,w
  1687     042A  00F4               	movwf	?___xxtofl
  1688     042B                     l621:
  1689     042B  0008               	return
  1690     042C                     __end_of___xxtofl:
  1691                           
  1692                           	psect	text6
  1693     04A9                     __ptext6:	
  1694 ;; *************** function ___fltol *****************
  1695 ;; Defined at:
  1696 ;;		line 43 in file "C:\Program Files\Microchip\xc8\v2.40\pic\sources\c90\common\fltol.c"
  1697 ;; Parameters:    Size  Location     Type
  1698 ;;  f1              4   36[BANK0 ] unsigned char 
  1699 ;; Auto vars:     Size  Location     Type
  1700 ;;  exp1            1   45[BANK0 ] unsigned char 
  1701 ;;  sign1           1   44[BANK0 ] unsigned char 
  1702 ;; Return value:  Size  Location     Type
  1703 ;;                  4   36[BANK0 ] long 
  1704 ;; Registers used:
  1705 ;;		wreg, status,2, status,0
  1706 ;; Tracked objects:
  1707 ;;		On entry : 0/0
  1708 ;;		On exit  : 0/0
  1709 ;;		Unchanged: 0/0
  1710 ;; Data sizes:     COMMON   BANK0   BANK1   BANK3   BANK2
  1711 ;;      Params:         0       4       0       0       0
  1712 ;;      Locals:         0       2       0       0       0
  1713 ;;      Temps:          0       4       0       0       0
  1714 ;;      Totals:         0      10       0       0       0
  1715 ;;Total ram usage:       10 bytes
  1716 ;; Hardware stack levels used: 1
  1717 ;; Hardware stack levels required when called: 1
  1718 ;; This function calls:
  1719 ;;		Nothing
  1720 ;; This function is called by:
  1721 ;;		_main
  1722 ;; This function uses a non-reentrant model
  1723 ;;
  1724                           
  1725     04A9                     ___fltol:	
  1726                           ;psect for function ___fltol
  1727                           
  1728     04A9                     l1564:	
  1729                           ;incstack = 0
  1730                           ; Regs used in ___fltol: [wreg+status,2+status,0]
  1731                           
  1732     04A9  1003               	clrc
  1733     04AA  1283               	bcf	3,5	;RP0=0, select bank0
  1734     04AB  1303               	bcf	3,6	;RP1=0, select bank0
  1735     04AC  0D46               	rlf	___fltol@f1+2,w
  1736     04AD  0D47               	rlf	___fltol@f1+3,w
  1737     04AE  00CD               	movwf	___fltol@exp1
  1738     04AF  084D               	movf	___fltol@exp1,w
  1739     04B0  1D03               	btfss	3,2
  1740     04B1  2CB3               	goto	u1851
  1741     04B2  2CB4               	goto	u1850
  1742     04B3                     u1851:
  1743     04B3  2CBD               	goto	l1570
  1744     04B4                     u1850:
  1745     04B4                     l1566:
  1746     04B4  3000               	movlw	0
  1747     04B5  00C7               	movwf	?___fltol+3
  1748     04B6  3000               	movlw	0
  1749     04B7  00C6               	movwf	?___fltol+2
  1750     04B8  3000               	movlw	0
  1751     04B9  00C5               	movwf	?___fltol+1
  1752     04BA  3000               	movlw	0
  1753     04BB  00C4               	movwf	?___fltol
  1754     04BC  2D20               	goto	l372
  1755     04BD                     l1570:
  1756     04BD  0844               	movf	___fltol@f1,w
  1757     04BE  00C8               	movwf	??___fltol
  1758     04BF  0845               	movf	___fltol@f1+1,w
  1759     04C0  00C9               	movwf	??___fltol+1
  1760     04C1  0846               	movf	___fltol@f1+2,w
  1761     04C2  00CA               	movwf	??___fltol+2
  1762     04C3  0847               	movf	___fltol@f1+3,w
  1763     04C4  00CB               	movwf	??___fltol+3
  1764     04C5  301F               	movlw	31
  1765     04C6                     u1865:
  1766     04C6  1003               	clrc
  1767     04C7  0CCB               	rrf	??___fltol+3,f
  1768     04C8  0CCA               	rrf	??___fltol+2,f
  1769     04C9  0CC9               	rrf	??___fltol+1,f
  1770     04CA  0CC8               	rrf	??___fltol,f
  1771     04CB                     u1860:
  1772     04CB  3EFF               	addlw	-1
  1773     04CC  1D03               	skipz
  1774     04CD  2CC6               	goto	u1865
  1775     04CE  0848               	movf	??___fltol,w
  1776     04CF  00CC               	movwf	___fltol@sign1
  1777     04D0                     l1572:
  1778     04D0  17C6               	bsf	___fltol@f1+2,7
  1779     04D1                     l1574:
  1780     04D1  30FF               	movlw	255
  1781     04D2  05C4               	andwf	___fltol@f1,f
  1782     04D3  30FF               	movlw	255
  1783     04D4  05C5               	andwf	___fltol@f1+1,f
  1784     04D5  30FF               	movlw	255
  1785     04D6  05C6               	andwf	___fltol@f1+2,f
  1786     04D7  3000               	movlw	0
  1787     04D8  05C7               	andwf	___fltol@f1+3,f
  1788     04D9                     l1576:
  1789     04D9  3096               	movlw	150
  1790     04DA  02CD               	subwf	___fltol@exp1,f
  1791     04DB                     l1578:
  1792     04DB  1FCD               	btfss	___fltol@exp1,7
  1793     04DC  2CDE               	goto	u1871
  1794     04DD  2CDF               	goto	u1870
  1795     04DE                     u1871:
  1796     04DE  2CF9               	goto	l1588
  1797     04DF                     u1870:
  1798     04DF                     l1580:
  1799     04DF  084D               	movf	___fltol@exp1,w
  1800     04E0  3A80               	xorlw	128
  1801     04E1  3E97               	addlw	151
  1802     04E2  1803               	skipnc
  1803     04E3  2CE5               	goto	u1881
  1804     04E4  2CE6               	goto	u1880
  1805     04E5                     u1881:
  1806     04E5  2CE7               	goto	l1586
  1807     04E6                     u1880:
  1808     04E6  2CB4               	goto	l1566
  1809     04E7                     l1586:
  1810     04E7  3001               	movlw	1
  1811     04E8                     u1895:
  1812     04E8  1003               	clrc
  1813     04E9  0CC7               	rrf	___fltol@f1+3,f
  1814     04EA  0CC6               	rrf	___fltol@f1+2,f
  1815     04EB  0CC5               	rrf	___fltol@f1+1,f
  1816     04EC  0CC4               	rrf	___fltol@f1,f
  1817     04ED  3EFF               	addlw	-1
  1818     04EE  1D03               	skipz
  1819     04EF  2CE8               	goto	u1895
  1820     04F0  3001               	movlw	1
  1821     04F1  00C8               	movwf	??___fltol
  1822     04F2  0848               	movf	??___fltol,w
  1823     04F3  07CD               	addwf	___fltol@exp1,f
  1824     04F4  1D03               	btfss	3,2
  1825     04F5  2CF7               	goto	u1901
  1826     04F6  2CF8               	goto	u1900
  1827     04F7                     u1901:
  1828     04F7  2CE7               	goto	l1586
  1829     04F8                     u1900:
  1830     04F8  2D10               	goto	l1596
  1831     04F9                     l1588:
  1832     04F9  3020               	movlw	32
  1833     04FA  024D               	subwf	___fltol@exp1,w
  1834     04FB  1C03               	skipc
  1835     04FC  2CFE               	goto	u1911
  1836     04FD  2CFF               	goto	u1910
  1837     04FE                     u1911:
  1838     04FE  2D0B               	goto	l379
  1839     04FF                     u1910:
  1840     04FF  2CB4               	goto	l1566
  1841     0500                     l1594:
  1842     0500  3001               	movlw	1
  1843     0501  00C8               	movwf	??___fltol
  1844     0502                     u1925:
  1845     0502  1003               	clrc
  1846     0503  0DC4               	rlf	___fltol@f1,f
  1847     0504  0DC5               	rlf	___fltol@f1+1,f
  1848     0505  0DC6               	rlf	___fltol@f1+2,f
  1849     0506  0DC7               	rlf	___fltol@f1+3,f
  1850     0507  0BC8               	decfsz	??___fltol,f
  1851     0508  2D02               	goto	u1925
  1852     0509  3001               	movlw	1
  1853     050A  02CD               	subwf	___fltol@exp1,f
  1854     050B                     l379:
  1855     050B  084D               	movf	___fltol@exp1,w
  1856     050C  1D03               	btfss	3,2
  1857     050D  2D0F               	goto	u1931
  1858     050E  2D10               	goto	u1930
  1859     050F                     u1931:
  1860     050F  2D00               	goto	l1594
  1861     0510                     u1930:
  1862     0510                     l1596:
  1863     0510  084C               	movf	___fltol@sign1,w
  1864     0511  1903               	btfsc	3,2
  1865     0512  2D14               	goto	u1941
  1866     0513  2D15               	goto	u1940
  1867     0514                     u1941:
  1868     0514  2D20               	goto	l382
  1869     0515                     u1940:
  1870     0515                     l1598:
  1871     0515  09C4               	comf	___fltol@f1,f
  1872     0516  09C5               	comf	___fltol@f1+1,f
  1873     0517  09C6               	comf	___fltol@f1+2,f
  1874     0518  09C7               	comf	___fltol@f1+3,f
  1875     0519  0AC4               	incf	___fltol@f1,f
  1876     051A  1903               	skipnz
  1877     051B  0AC5               	incf	___fltol@f1+1,f
  1878     051C  1903               	skipnz
  1879     051D  0AC6               	incf	___fltol@f1+2,f
  1880     051E  1903               	skipnz
  1881     051F  0AC7               	incf	___fltol@f1+3,f
  1882     0520                     l382:
  1883     0520                     l372:
  1884     0520  0008               	return
  1885     0521                     __end_of___fltol:
  1886                           
  1887                           	psect	text7
  1888     002D                     __ptext7:	
  1889 ;; *************** function ___flmul *****************
  1890 ;; Defined at:
  1891 ;;		line 8 in file "C:\Program Files\Microchip\xc8\v2.40\pic\sources\c90\common\sprcmul.c"
  1892 ;; Parameters:    Size  Location     Type
  1893 ;;  b               4   10[BANK0 ] long 
  1894 ;;  a               4   14[BANK0 ] long 
  1895 ;; Auto vars:     Size  Location     Type
  1896 ;;  prod            4   30[BANK0 ] struct .
  1897 ;;  grs             4   24[BANK0 ] unsigned long 
  1898 ;;  temp            2   34[BANK0 ] struct .
  1899 ;;  bexp            1   29[BANK0 ] unsigned char 
  1900 ;;  aexp            1   28[BANK0 ] unsigned char 
  1901 ;;  sign            1   23[BANK0 ] unsigned char 
  1902 ;; Return value:  Size  Location     Type
  1903 ;;                  4   10[BANK0 ] unsigned char 
  1904 ;; Registers used:
  1905 ;;		wreg, status,2, status,0, btemp+1, pclath, cstack
  1906 ;; Tracked objects:
  1907 ;;		On entry : 0/0
  1908 ;;		On exit  : 0/0
  1909 ;;		Unchanged: 0/0
  1910 ;; Data sizes:     COMMON   BANK0   BANK1   BANK3   BANK2
  1911 ;;      Params:         0       8       0       0       0
  1912 ;;      Locals:         0      13       0       0       0
  1913 ;;      Temps:          0       5       0       0       0
  1914 ;;      Totals:         0      26       0       0       0
  1915 ;;Total ram usage:       26 bytes
  1916 ;; Hardware stack levels used: 1
  1917 ;; Hardware stack levels required when called: 2
  1918 ;; This function calls:
  1919 ;;		__Umul8_16
  1920 ;; This function is called by:
  1921 ;;		_main
  1922 ;; This function uses a non-reentrant model
  1923 ;;
  1924                           
  1925     002D                     ___flmul:	
  1926                           ;psect for function ___flmul
  1927                           
  1928     002D                     l1318:	
  1929                           ;incstack = 0
  1930                           ; Regs used in ___flmul: [wreg+status,2+status,0+btemp+1+pclath+cstack]
  1931                           
  1932     002D  1283               	bcf	3,5	;RP0=0, select bank0
  1933     002E  1303               	bcf	3,6	;RP1=0, select bank0
  1934     002F  082D               	movf	___flmul@b+3,w
  1935     0030  3980               	andlw	128
  1936     0031  00B7               	movwf	___flmul@sign
  1937     0032                     l1320:
  1938     0032  082D               	movf	___flmul@b+3,w
  1939     0033  00B2               	movwf	??___flmul
  1940     0034  0732               	addwf	??___flmul,w
  1941     0035  00BD               	movwf	___flmul@bexp
  1942     0036                     l1322:
  1943     0036  1FAC               	btfss	___flmul@b+2,7
  1944     0037  2839               	goto	u1251
  1945     0038  283A               	goto	u1250
  1946     0039                     u1251:
  1947     0039  283B               	goto	l1326
  1948     003A                     u1250:
  1949     003A                     l1324:
  1950     003A  143D               	bsf	___flmul@bexp,0
  1951     003B                     l1326:
  1952     003B  083D               	movf	___flmul@bexp,w
  1953     003C  1903               	btfsc	3,2
  1954     003D  283F               	goto	u1261
  1955     003E  2840               	goto	u1260
  1956     003F                     u1261:
  1957     003F  284F               	goto	l1334
  1958     0040                     u1260:
  1959     0040                     l1328:
  1960     0040  0A3D               	incf	___flmul@bexp,w
  1961     0041  1D03               	btfss	3,2
  1962     0042  2844               	goto	u1271
  1963     0043  2845               	goto	u1270
  1964     0044                     u1271:
  1965     0044  284D               	goto	l1332
  1966     0045                     u1270:
  1967     0045                     l1330:
  1968     0045  3000               	movlw	0
  1969     0046  00AD               	movwf	___flmul@b+3
  1970     0047  3000               	movlw	0
  1971     0048  00AC               	movwf	___flmul@b+2
  1972     0049  3000               	movlw	0
  1973     004A  00AB               	movwf	___flmul@b+1
  1974     004B  3000               	movlw	0
  1975     004C  00AA               	movwf	___flmul@b
  1976     004D                     l1332:
  1977     004D  17AC               	bsf	___flmul@b+2,7
  1978     004E  2857               	goto	l1336
  1979     004F                     l1334:
  1980     004F  3000               	movlw	0
  1981     0050  00AD               	movwf	___flmul@b+3
  1982     0051  3000               	movlw	0
  1983     0052  00AC               	movwf	___flmul@b+2
  1984     0053  3000               	movlw	0
  1985     0054  00AB               	movwf	___flmul@b+1
  1986     0055  3000               	movlw	0
  1987     0056  00AA               	movwf	___flmul@b
  1988     0057                     l1336:
  1989     0057  0831               	movf	___flmul@a+3,w
  1990     0058  3980               	andlw	128
  1991     0059  00B2               	movwf	??___flmul
  1992     005A  0832               	movf	??___flmul,w
  1993     005B  06B7               	xorwf	___flmul@sign,f
  1994     005C                     l1338:
  1995     005C  0831               	movf	___flmul@a+3,w
  1996     005D  00B2               	movwf	??___flmul
  1997     005E  0732               	addwf	??___flmul,w
  1998     005F  00BC               	movwf	___flmul@aexp
  1999     0060                     l1340:
  2000     0060  1FB0               	btfss	___flmul@a+2,7
  2001     0061  2863               	goto	u1281
  2002     0062  2864               	goto	u1280
  2003     0063                     u1281:
  2004     0063  2865               	goto	l1344
  2005     0064                     u1280:
  2006     0064                     l1342:
  2007     0064  143C               	bsf	___flmul@aexp,0
  2008     0065                     l1344:
  2009     0065  083C               	movf	___flmul@aexp,w
  2010     0066  1903               	btfsc	3,2
  2011     0067  2869               	goto	u1291
  2012     0068  286A               	goto	u1290
  2013     0069                     u1291:
  2014     0069  2879               	goto	l1352
  2015     006A                     u1290:
  2016     006A                     l1346:
  2017     006A  0A3C               	incf	___flmul@aexp,w
  2018     006B  1D03               	btfss	3,2
  2019     006C  286E               	goto	u1301
  2020     006D  286F               	goto	u1300
  2021     006E                     u1301:
  2022     006E  2877               	goto	l1350
  2023     006F                     u1300:
  2024     006F                     l1348:
  2025     006F  3000               	movlw	0
  2026     0070  00B1               	movwf	___flmul@a+3
  2027     0071  3000               	movlw	0
  2028     0072  00B0               	movwf	___flmul@a+2
  2029     0073  3000               	movlw	0
  2030     0074  00AF               	movwf	___flmul@a+1
  2031     0075  3000               	movlw	0
  2032     0076  00AE               	movwf	___flmul@a
  2033     0077                     l1350:
  2034     0077  17B0               	bsf	___flmul@a+2,7
  2035     0078  2881               	goto	l1354
  2036     0079                     l1352:
  2037     0079  3000               	movlw	0
  2038     007A  00B1               	movwf	___flmul@a+3
  2039     007B  3000               	movlw	0
  2040     007C  00B0               	movwf	___flmul@a+2
  2041     007D  3000               	movlw	0
  2042     007E  00AF               	movwf	___flmul@a+1
  2043     007F  3000               	movlw	0
  2044     0080  00AE               	movwf	___flmul@a
  2045     0081                     l1354:
  2046     0081  083C               	movf	___flmul@aexp,w
  2047     0082  1903               	btfsc	3,2
  2048     0083  2885               	goto	u1311
  2049     0084  2886               	goto	u1310
  2050     0085                     u1311:
  2051     0085  288B               	goto	l1358
  2052     0086                     u1310:
  2053     0086                     l1356:
  2054     0086  083D               	movf	___flmul@bexp,w
  2055     0087  1D03               	btfss	3,2
  2056     0088  288A               	goto	u1321
  2057     0089  288B               	goto	u1320
  2058     008A                     u1321:
  2059     008A  2894               	goto	l1362
  2060     008B                     u1320:
  2061     008B                     l1358:
  2062     008B  3000               	movlw	0
  2063     008C  00AD               	movwf	?___flmul+3
  2064     008D  3000               	movlw	0
  2065     008E  00AC               	movwf	?___flmul+2
  2066     008F  3000               	movlw	0
  2067     0090  00AB               	movwf	?___flmul+1
  2068     0091  3000               	movlw	0
  2069     0092  00AA               	movwf	?___flmul
  2070     0093  2B71               	goto	l575
  2071     0094                     l1362:
  2072     0094  082A               	movf	___flmul@b,w
  2073     0095  00F4               	movwf	__Umul8_16@multiplicand
  2074     0096  0830               	movf	___flmul@a+2,w
  2075     0097  120A  118A  26D5  120A  118A  	fcall	__Umul8_16
  2076     009C  0875               	movf	?__Umul8_16+1,w
  2077     009D  1283               	bcf	3,5	;RP0=0, select bank0
  2078     009E  1303               	bcf	3,6	;RP1=0, select bank0
  2079     009F  00C3               	movwf	___flmul@temp+1
  2080     00A0  0874               	movf	?__Umul8_16,w
  2081     00A1  00C2               	movwf	___flmul@temp
  2082     00A2                     l1364:
  2083     00A2  0842               	movf	___flmul@temp,w
  2084     00A3  00B2               	movwf	??___flmul
  2085     00A4  01B3               	clrf	??___flmul+1
  2086     00A5  01B4               	clrf	??___flmul+2
  2087     00A6  01B5               	clrf	??___flmul+3
  2088     00A7  0835               	movf	??___flmul+3,w
  2089     00A8  00BB               	movwf	___flmul@grs+3
  2090     00A9  0834               	movf	??___flmul+2,w
  2091     00AA  00BA               	movwf	___flmul@grs+2
  2092     00AB  0833               	movf	??___flmul+1,w
  2093     00AC  00B9               	movwf	___flmul@grs+1
  2094     00AD  0832               	movf	??___flmul,w
  2095     00AE  00B8               	movwf	___flmul@grs
  2096     00AF                     l1366:
  2097     00AF  0843               	movf	___flmul@temp+1,w
  2098     00B0  00B2               	movwf	??___flmul
  2099     00B1  01B3               	clrf	??___flmul+1
  2100     00B2  01B4               	clrf	??___flmul+2
  2101     00B3  01B5               	clrf	??___flmul+3
  2102     00B4  0835               	movf	??___flmul+3,w
  2103     00B5  00C1               	movwf	___flmul@prod+3
  2104     00B6  0834               	movf	??___flmul+2,w
  2105     00B7  00C0               	movwf	___flmul@prod+2
  2106     00B8  0833               	movf	??___flmul+1,w
  2107     00B9  00BF               	movwf	___flmul@prod+1
  2108     00BA  0832               	movf	??___flmul,w
  2109     00BB  00BE               	movwf	___flmul@prod
  2110     00BC  082B               	movf	___flmul@b+1,w
  2111     00BD  00F4               	movwf	__Umul8_16@multiplicand
  2112     00BE  082F               	movf	___flmul@a+1,w
  2113     00BF  120A  118A  26D5  120A  118A  	fcall	__Umul8_16
  2114     00C4  0875               	movf	?__Umul8_16+1,w
  2115     00C5  1283               	bcf	3,5	;RP0=0, select bank0
  2116     00C6  1303               	bcf	3,6	;RP1=0, select bank0
  2117     00C7  00C3               	movwf	___flmul@temp+1
  2118     00C8  0874               	movf	?__Umul8_16,w
  2119     00C9  00C2               	movwf	___flmul@temp
  2120     00CA                     l1368:
  2121     00CA  0842               	movf	___flmul@temp,w
  2122     00CB  00B2               	movwf	??___flmul
  2123     00CC  01B3               	clrf	??___flmul+1
  2124     00CD  01B4               	clrf	??___flmul+2
  2125     00CE  01B5               	clrf	??___flmul+3
  2126     00CF  0832               	movf	??___flmul,w
  2127     00D0  07B8               	addwf	___flmul@grs,f
  2128     00D1  0833               	movf	??___flmul+1,w
  2129     00D2  1103               	clrz
  2130     00D3  1803               	skipnc
  2131     00D4  3E01               	addlw	1
  2132     00D5  1903               	skipnz
  2133     00D6  28D8               	goto	u1331
  2134     00D7  07B9               	addwf	___flmul@grs+1,f
  2135     00D8                     u1331:
  2136     00D8  0834               	movf	??___flmul+2,w
  2137     00D9  1103               	clrz
  2138     00DA  1803               	skipnc
  2139     00DB  3E01               	addlw	1
  2140     00DC  1903               	skipnz
  2141     00DD  28DF               	goto	u1332
  2142     00DE  07BA               	addwf	___flmul@grs+2,f
  2143     00DF                     u1332:
  2144     00DF  0835               	movf	??___flmul+3,w
  2145     00E0  1103               	clrz
  2146     00E1  1803               	skipnc
  2147     00E2  3E01               	addlw	1
  2148     00E3  1903               	skipnz
  2149     00E4  28E6               	goto	u1333
  2150     00E5  07BB               	addwf	___flmul@grs+3,f
  2151     00E6                     u1333:
  2152     00E6                     l1370:
  2153     00E6  0843               	movf	___flmul@temp+1,w
  2154     00E7  00B2               	movwf	??___flmul
  2155     00E8  01B3               	clrf	??___flmul+1
  2156     00E9  01B4               	clrf	??___flmul+2
  2157     00EA  01B5               	clrf	??___flmul+3
  2158     00EB  0832               	movf	??___flmul,w
  2159     00EC  07BE               	addwf	___flmul@prod,f
  2160     00ED  0833               	movf	??___flmul+1,w
  2161     00EE  1103               	clrz
  2162     00EF  1803               	skipnc
  2163     00F0  3E01               	addlw	1
  2164     00F1  1903               	skipnz
  2165     00F2  28F4               	goto	u1341
  2166     00F3  07BF               	addwf	___flmul@prod+1,f
  2167     00F4                     u1341:
  2168     00F4  0834               	movf	??___flmul+2,w
  2169     00F5  1103               	clrz
  2170     00F6  1803               	skipnc
  2171     00F7  3E01               	addlw	1
  2172     00F8  1903               	skipnz
  2173     00F9  28FB               	goto	u1342
  2174     00FA  07C0               	addwf	___flmul@prod+2,f
  2175     00FB                     u1342:
  2176     00FB  0835               	movf	??___flmul+3,w
  2177     00FC  1103               	clrz
  2178     00FD  1803               	skipnc
  2179     00FE  3E01               	addlw	1
  2180     00FF  1903               	skipnz
  2181     0100  2902               	goto	u1343
  2182     0101  07C1               	addwf	___flmul@prod+3,f
  2183     0102                     u1343:
  2184     0102  082C               	movf	___flmul@b+2,w
  2185     0103  00F4               	movwf	__Umul8_16@multiplicand
  2186     0104  082E               	movf	___flmul@a,w
  2187     0105  120A  118A  26D5  120A  118A  	fcall	__Umul8_16
  2188     010A  0875               	movf	?__Umul8_16+1,w
  2189     010B  1283               	bcf	3,5	;RP0=0, select bank0
  2190     010C  1303               	bcf	3,6	;RP1=0, select bank0
  2191     010D  00C3               	movwf	___flmul@temp+1
  2192     010E  0874               	movf	?__Umul8_16,w
  2193     010F  00C2               	movwf	___flmul@temp
  2194     0110                     l1372:
  2195     0110  0842               	movf	___flmul@temp,w
  2196     0111  00B2               	movwf	??___flmul
  2197     0112  01B3               	clrf	??___flmul+1
  2198     0113  01B4               	clrf	??___flmul+2
  2199     0114  01B5               	clrf	??___flmul+3
  2200     0115  0832               	movf	??___flmul,w
  2201     0116  07B8               	addwf	___flmul@grs,f
  2202     0117  0833               	movf	??___flmul+1,w
  2203     0118  1103               	clrz
  2204     0119  1803               	skipnc
  2205     011A  3E01               	addlw	1
  2206     011B  1903               	skipnz
  2207     011C  291E               	goto	u1351
  2208     011D  07B9               	addwf	___flmul@grs+1,f
  2209     011E                     u1351:
  2210     011E  0834               	movf	??___flmul+2,w
  2211     011F  1103               	clrz
  2212     0120  1803               	skipnc
  2213     0121  3E01               	addlw	1
  2214     0122  1903               	skipnz
  2215     0123  2925               	goto	u1352
  2216     0124  07BA               	addwf	___flmul@grs+2,f
  2217     0125                     u1352:
  2218     0125  0835               	movf	??___flmul+3,w
  2219     0126  1103               	clrz
  2220     0127  1803               	skipnc
  2221     0128  3E01               	addlw	1
  2222     0129  1903               	skipnz
  2223     012A  292C               	goto	u1353
  2224     012B  07BB               	addwf	___flmul@grs+3,f
  2225     012C                     u1353:
  2226     012C                     l1374:
  2227     012C  0843               	movf	___flmul@temp+1,w
  2228     012D  00B2               	movwf	??___flmul
  2229     012E  01B3               	clrf	??___flmul+1
  2230     012F  01B4               	clrf	??___flmul+2
  2231     0130  01B5               	clrf	??___flmul+3
  2232     0131  0832               	movf	??___flmul,w
  2233     0132  07BE               	addwf	___flmul@prod,f
  2234     0133  0833               	movf	??___flmul+1,w
  2235     0134  1103               	clrz
  2236     0135  1803               	skipnc
  2237     0136  3E01               	addlw	1
  2238     0137  1903               	skipnz
  2239     0138  293A               	goto	u1361
  2240     0139  07BF               	addwf	___flmul@prod+1,f
  2241     013A                     u1361:
  2242     013A  0834               	movf	??___flmul+2,w
  2243     013B  1103               	clrz
  2244     013C  1803               	skipnc
  2245     013D  3E01               	addlw	1
  2246     013E  1903               	skipnz
  2247     013F  2941               	goto	u1362
  2248     0140  07C0               	addwf	___flmul@prod+2,f
  2249     0141                     u1362:
  2250     0141  0835               	movf	??___flmul+3,w
  2251     0142  1103               	clrz
  2252     0143  1803               	skipnc
  2253     0144  3E01               	addlw	1
  2254     0145  1903               	skipnz
  2255     0146  2948               	goto	u1363
  2256     0147  07C1               	addwf	___flmul@prod+3,f
  2257     0148                     u1363:
  2258     0148                     l1376:
  2259     0148  3008               	movlw	8
  2260     0149  00B2               	movwf	??___flmul
  2261     014A                     u1375:
  2262     014A  1003               	clrc
  2263     014B  0DB8               	rlf	___flmul@grs,f
  2264     014C  0DB9               	rlf	___flmul@grs+1,f
  2265     014D  0DBA               	rlf	___flmul@grs+2,f
  2266     014E  0DBB               	rlf	___flmul@grs+3,f
  2267     014F  0BB2               	decfsz	??___flmul,f
  2268     0150  294A               	goto	u1375
  2269     0151                     l1378:
  2270     0151  082B               	movf	___flmul@b+1,w
  2271     0152  00F4               	movwf	__Umul8_16@multiplicand
  2272     0153  082E               	movf	___flmul@a,w
  2273     0154  120A  118A  26D5  120A  118A  	fcall	__Umul8_16
  2274     0159  0875               	movf	?__Umul8_16+1,w
  2275     015A  1283               	bcf	3,5	;RP0=0, select bank0
  2276     015B  1303               	bcf	3,6	;RP1=0, select bank0
  2277     015C  00C3               	movwf	___flmul@temp+1
  2278     015D  0874               	movf	?__Umul8_16,w
  2279     015E  00C2               	movwf	___flmul@temp
  2280     015F                     l1380:
  2281     015F  0842               	movf	___flmul@temp,w
  2282     0160  00B2               	movwf	??___flmul
  2283     0161  0843               	movf	___flmul@temp+1,w
  2284     0162  00B3               	movwf	??___flmul+1
  2285     0163  01B4               	clrf	??___flmul+2
  2286     0164  01B5               	clrf	??___flmul+3
  2287     0165  0832               	movf	??___flmul,w
  2288     0166  07B8               	addwf	___flmul@grs,f
  2289     0167  0833               	movf	??___flmul+1,w
  2290     0168  1103               	clrz
  2291     0169  1803               	skipnc
  2292     016A  3E01               	addlw	1
  2293     016B  1903               	skipnz
  2294     016C  296E               	goto	u1381
  2295     016D  07B9               	addwf	___flmul@grs+1,f
  2296     016E                     u1381:
  2297     016E  0834               	movf	??___flmul+2,w
  2298     016F  1103               	clrz
  2299     0170  1803               	skipnc
  2300     0171  3E01               	addlw	1
  2301     0172  1903               	skipnz
  2302     0173  2975               	goto	u1382
  2303     0174  07BA               	addwf	___flmul@grs+2,f
  2304     0175                     u1382:
  2305     0175  0835               	movf	??___flmul+3,w
  2306     0176  1103               	clrz
  2307     0177  1803               	skipnc
  2308     0178  3E01               	addlw	1
  2309     0179  1903               	skipnz
  2310     017A  297C               	goto	u1383
  2311     017B  07BB               	addwf	___flmul@grs+3,f
  2312     017C                     u1383:
  2313     017C                     l1382:
  2314     017C  082A               	movf	___flmul@b,w
  2315     017D  00F4               	movwf	__Umul8_16@multiplicand
  2316     017E  082F               	movf	___flmul@a+1,w
  2317     017F  120A  118A  26D5  120A  118A  	fcall	__Umul8_16
  2318     0184  0875               	movf	?__Umul8_16+1,w
  2319     0185  1283               	bcf	3,5	;RP0=0, select bank0
  2320     0186  1303               	bcf	3,6	;RP1=0, select bank0
  2321     0187  00C3               	movwf	___flmul@temp+1
  2322     0188  0874               	movf	?__Umul8_16,w
  2323     0189  00C2               	movwf	___flmul@temp
  2324     018A                     l1384:
  2325     018A  0842               	movf	___flmul@temp,w
  2326     018B  00B2               	movwf	??___flmul
  2327     018C  0843               	movf	___flmul@temp+1,w
  2328     018D  00B3               	movwf	??___flmul+1
  2329     018E  01B4               	clrf	??___flmul+2
  2330     018F  01B5               	clrf	??___flmul+3
  2331     0190  0832               	movf	??___flmul,w
  2332     0191  07B8               	addwf	___flmul@grs,f
  2333     0192  0833               	movf	??___flmul+1,w
  2334     0193  1103               	clrz
  2335     0194  1803               	skipnc
  2336     0195  3E01               	addlw	1
  2337     0196  1903               	skipnz
  2338     0197  2999               	goto	u1391
  2339     0198  07B9               	addwf	___flmul@grs+1,f
  2340     0199                     u1391:
  2341     0199  0834               	movf	??___flmul+2,w
  2342     019A  1103               	clrz
  2343     019B  1803               	skipnc
  2344     019C  3E01               	addlw	1
  2345     019D  1903               	skipnz
  2346     019E  29A0               	goto	u1392
  2347     019F  07BA               	addwf	___flmul@grs+2,f
  2348     01A0                     u1392:
  2349     01A0  0835               	movf	??___flmul+3,w
  2350     01A1  1103               	clrz
  2351     01A2  1803               	skipnc
  2352     01A3  3E01               	addlw	1
  2353     01A4  1903               	skipnz
  2354     01A5  29A7               	goto	u1393
  2355     01A6  07BB               	addwf	___flmul@grs+3,f
  2356     01A7                     u1393:
  2357     01A7                     l1386:
  2358     01A7  3008               	movlw	8
  2359     01A8  00B2               	movwf	??___flmul
  2360     01A9                     u1405:
  2361     01A9  1003               	clrc
  2362     01AA  0DB8               	rlf	___flmul@grs,f
  2363     01AB  0DB9               	rlf	___flmul@grs+1,f
  2364     01AC  0DBA               	rlf	___flmul@grs+2,f
  2365     01AD  0DBB               	rlf	___flmul@grs+3,f
  2366     01AE  0BB2               	decfsz	??___flmul,f
  2367     01AF  29A9               	goto	u1405
  2368     01B0  082A               	movf	___flmul@b,w
  2369     01B1  00F4               	movwf	__Umul8_16@multiplicand
  2370     01B2  082E               	movf	___flmul@a,w
  2371     01B3  120A  118A  26D5  120A  118A  	fcall	__Umul8_16
  2372     01B8  0875               	movf	?__Umul8_16+1,w
  2373     01B9  1283               	bcf	3,5	;RP0=0, select bank0
  2374     01BA  1303               	bcf	3,6	;RP1=0, select bank0
  2375     01BB  00C3               	movwf	___flmul@temp+1
  2376     01BC  0874               	movf	?__Umul8_16,w
  2377     01BD  00C2               	movwf	___flmul@temp
  2378     01BE                     l1388:
  2379     01BE  0842               	movf	___flmul@temp,w
  2380     01BF  00B2               	movwf	??___flmul
  2381     01C0  0843               	movf	___flmul@temp+1,w
  2382     01C1  00B3               	movwf	??___flmul+1
  2383     01C2  01B4               	clrf	??___flmul+2
  2384     01C3  01B5               	clrf	??___flmul+3
  2385     01C4  0832               	movf	??___flmul,w
  2386     01C5  07B8               	addwf	___flmul@grs,f
  2387     01C6  0833               	movf	??___flmul+1,w
  2388     01C7  1103               	clrz
  2389     01C8  1803               	skipnc
  2390     01C9  3E01               	addlw	1
  2391     01CA  1903               	skipnz
  2392     01CB  29CD               	goto	u1411
  2393     01CC  07B9               	addwf	___flmul@grs+1,f
  2394     01CD                     u1411:
  2395     01CD  0834               	movf	??___flmul+2,w
  2396     01CE  1103               	clrz
  2397     01CF  1803               	skipnc
  2398     01D0  3E01               	addlw	1
  2399     01D1  1903               	skipnz
  2400     01D2  29D4               	goto	u1412
  2401     01D3  07BA               	addwf	___flmul@grs+2,f
  2402     01D4                     u1412:
  2403     01D4  0835               	movf	??___flmul+3,w
  2404     01D5  1103               	clrz
  2405     01D6  1803               	skipnc
  2406     01D7  3E01               	addlw	1
  2407     01D8  1903               	skipnz
  2408     01D9  29DB               	goto	u1413
  2409     01DA  07BB               	addwf	___flmul@grs+3,f
  2410     01DB                     u1413:
  2411     01DB                     l1390:
  2412     01DB  082B               	movf	___flmul@b+1,w
  2413     01DC  00F4               	movwf	__Umul8_16@multiplicand
  2414     01DD  0830               	movf	___flmul@a+2,w
  2415     01DE  120A  118A  26D5  120A  118A  	fcall	__Umul8_16
  2416     01E3  0875               	movf	?__Umul8_16+1,w
  2417     01E4  1283               	bcf	3,5	;RP0=0, select bank0
  2418     01E5  1303               	bcf	3,6	;RP1=0, select bank0
  2419     01E6  00C3               	movwf	___flmul@temp+1
  2420     01E7  0874               	movf	?__Umul8_16,w
  2421     01E8  00C2               	movwf	___flmul@temp
  2422     01E9  0842               	movf	___flmul@temp,w
  2423     01EA  00B2               	movwf	??___flmul
  2424     01EB  0843               	movf	___flmul@temp+1,w
  2425     01EC  00B3               	movwf	??___flmul+1
  2426     01ED  01B4               	clrf	??___flmul+2
  2427     01EE  01B5               	clrf	??___flmul+3
  2428     01EF  0832               	movf	??___flmul,w
  2429     01F0  07BE               	addwf	___flmul@prod,f
  2430     01F1  0833               	movf	??___flmul+1,w
  2431     01F2  1103               	clrz
  2432     01F3  1803               	skipnc
  2433     01F4  3E01               	addlw	1
  2434     01F5  1903               	skipnz
  2435     01F6  29F8               	goto	u1421
  2436     01F7  07BF               	addwf	___flmul@prod+1,f
  2437     01F8                     u1421:
  2438     01F8  0834               	movf	??___flmul+2,w
  2439     01F9  1103               	clrz
  2440     01FA  1803               	skipnc
  2441     01FB  3E01               	addlw	1
  2442     01FC  1903               	skipnz
  2443     01FD  29FF               	goto	u1422
  2444     01FE  07C0               	addwf	___flmul@prod+2,f
  2445     01FF                     u1422:
  2446     01FF  0835               	movf	??___flmul+3,w
  2447     0200  1103               	clrz
  2448     0201  1803               	skipnc
  2449     0202  3E01               	addlw	1
  2450     0203  1903               	skipnz
  2451     0204  2A06               	goto	u1423
  2452     0205  07C1               	addwf	___flmul@prod+3,f
  2453     0206                     u1423:
  2454     0206                     l1392:
  2455     0206  082C               	movf	___flmul@b+2,w
  2456     0207  00F4               	movwf	__Umul8_16@multiplicand
  2457     0208  082F               	movf	___flmul@a+1,w
  2458     0209  120A  118A  26D5  120A  118A  	fcall	__Umul8_16
  2459     020E  0875               	movf	?__Umul8_16+1,w
  2460     020F  1283               	bcf	3,5	;RP0=0, select bank0
  2461     0210  1303               	bcf	3,6	;RP1=0, select bank0
  2462     0211  00C3               	movwf	___flmul@temp+1
  2463     0212  0874               	movf	?__Umul8_16,w
  2464     0213  00C2               	movwf	___flmul@temp
  2465     0214                     l1394:
  2466     0214  0842               	movf	___flmul@temp,w
  2467     0215  00B2               	movwf	??___flmul
  2468     0216  0843               	movf	___flmul@temp+1,w
  2469     0217  00B3               	movwf	??___flmul+1
  2470     0218  01B4               	clrf	??___flmul+2
  2471     0219  01B5               	clrf	??___flmul+3
  2472     021A  0832               	movf	??___flmul,w
  2473     021B  07BE               	addwf	___flmul@prod,f
  2474     021C  0833               	movf	??___flmul+1,w
  2475     021D  1103               	clrz
  2476     021E  1803               	skipnc
  2477     021F  3E01               	addlw	1
  2478     0220  1903               	skipnz
  2479     0221  2A23               	goto	u1431
  2480     0222  07BF               	addwf	___flmul@prod+1,f
  2481     0223                     u1431:
  2482     0223  0834               	movf	??___flmul+2,w
  2483     0224  1103               	clrz
  2484     0225  1803               	skipnc
  2485     0226  3E01               	addlw	1
  2486     0227  1903               	skipnz
  2487     0228  2A2A               	goto	u1432
  2488     0229  07C0               	addwf	___flmul@prod+2,f
  2489     022A                     u1432:
  2490     022A  0835               	movf	??___flmul+3,w
  2491     022B  1103               	clrz
  2492     022C  1803               	skipnc
  2493     022D  3E01               	addlw	1
  2494     022E  1903               	skipnz
  2495     022F  2A31               	goto	u1433
  2496     0230  07C1               	addwf	___flmul@prod+3,f
  2497     0231                     u1433:
  2498     0231  082C               	movf	___flmul@b+2,w
  2499     0232  00F4               	movwf	__Umul8_16@multiplicand
  2500     0233  0830               	movf	___flmul@a+2,w
  2501     0234  120A  118A  26D5  120A  118A  	fcall	__Umul8_16
  2502     0239  0875               	movf	?__Umul8_16+1,w
  2503     023A  1283               	bcf	3,5	;RP0=0, select bank0
  2504     023B  1303               	bcf	3,6	;RP1=0, select bank0
  2505     023C  00C3               	movwf	___flmul@temp+1
  2506     023D  0874               	movf	?__Umul8_16,w
  2507     023E  00C2               	movwf	___flmul@temp
  2508     023F                     l1396:
  2509     023F  0842               	movf	___flmul@temp,w
  2510     0240  00B2               	movwf	??___flmul
  2511     0241  0843               	movf	___flmul@temp+1,w
  2512     0242  00B3               	movwf	??___flmul+1
  2513     0243  01B4               	clrf	??___flmul+2
  2514     0244  01B5               	clrf	??___flmul+3
  2515     0245  3008               	movlw	8
  2516     0246                     u1445:
  2517     0246  1003               	clrc
  2518     0247  0DB2               	rlf	??___flmul,f
  2519     0248  0DB3               	rlf	??___flmul+1,f
  2520     0249  0DB4               	rlf	??___flmul+2,f
  2521     024A  0DB5               	rlf	??___flmul+3,f
  2522     024B                     u1440:
  2523     024B  3EFF               	addlw	-1
  2524     024C  1D03               	skipz
  2525     024D  2A46               	goto	u1445
  2526     024E  0832               	movf	??___flmul,w
  2527     024F  07BE               	addwf	___flmul@prod,f
  2528     0250  0833               	movf	??___flmul+1,w
  2529     0251  1103               	clrz
  2530     0252  1803               	skipnc
  2531     0253  3E01               	addlw	1
  2532     0254  1903               	skipnz
  2533     0255  2A57               	goto	u1451
  2534     0256  07BF               	addwf	___flmul@prod+1,f
  2535     0257                     u1451:
  2536     0257  0834               	movf	??___flmul+2,w
  2537     0258  1103               	clrz
  2538     0259  1803               	skipnc
  2539     025A  3E01               	addlw	1
  2540     025B  1903               	skipnz
  2541     025C  2A5E               	goto	u1452
  2542     025D  07C0               	addwf	___flmul@prod+2,f
  2543     025E                     u1452:
  2544     025E  0835               	movf	??___flmul+3,w
  2545     025F  1103               	clrz
  2546     0260  1803               	skipnc
  2547     0261  3E01               	addlw	1
  2548     0262  1903               	skipnz
  2549     0263  2A65               	goto	u1453
  2550     0264  07C1               	addwf	___flmul@prod+3,f
  2551     0265                     u1453:
  2552     0265                     l1398:
  2553     0265  0838               	movf	___flmul@grs,w
  2554     0266  00B2               	movwf	??___flmul
  2555     0267  0839               	movf	___flmul@grs+1,w
  2556     0268  00B3               	movwf	??___flmul+1
  2557     0269  083A               	movf	___flmul@grs+2,w
  2558     026A  00B4               	movwf	??___flmul+2
  2559     026B  083B               	movf	___flmul@grs+3,w
  2560     026C  00B5               	movwf	??___flmul+3
  2561     026D  3018               	movlw	24
  2562     026E                     u1465:
  2563     026E  1003               	clrc
  2564     026F  0CB5               	rrf	??___flmul+3,f
  2565     0270  0CB4               	rrf	??___flmul+2,f
  2566     0271  0CB3               	rrf	??___flmul+1,f
  2567     0272  0CB2               	rrf	??___flmul,f
  2568     0273                     u1460:
  2569     0273  3EFF               	addlw	-1
  2570     0274  1D03               	skipz
  2571     0275  2A6E               	goto	u1465
  2572     0276  0832               	movf	??___flmul,w
  2573     0277  07BE               	addwf	___flmul@prod,f
  2574     0278  0833               	movf	??___flmul+1,w
  2575     0279  1103               	clrz
  2576     027A  1803               	skipnc
  2577     027B  3E01               	addlw	1
  2578     027C  1903               	skipnz
  2579     027D  2A7F               	goto	u1471
  2580     027E  07BF               	addwf	___flmul@prod+1,f
  2581     027F                     u1471:
  2582     027F  0834               	movf	??___flmul+2,w
  2583     0280  1103               	clrz
  2584     0281  1803               	skipnc
  2585     0282  3E01               	addlw	1
  2586     0283  1903               	skipnz
  2587     0284  2A86               	goto	u1472
  2588     0285  07C0               	addwf	___flmul@prod+2,f
  2589     0286                     u1472:
  2590     0286  0835               	movf	??___flmul+3,w
  2591     0287  1103               	clrz
  2592     0288  1803               	skipnc
  2593     0289  3E01               	addlw	1
  2594     028A  1903               	skipnz
  2595     028B  2A8D               	goto	u1473
  2596     028C  07C1               	addwf	___flmul@prod+3,f
  2597     028D                     u1473:
  2598     028D                     l1400:
  2599     028D  3008               	movlw	8
  2600     028E  00B2               	movwf	??___flmul
  2601     028F                     u1485:
  2602     028F  1003               	clrc
  2603     0290  0DB8               	rlf	___flmul@grs,f
  2604     0291  0DB9               	rlf	___flmul@grs+1,f
  2605     0292  0DBA               	rlf	___flmul@grs+2,f
  2606     0293  0DBB               	rlf	___flmul@grs+3,f
  2607     0294  0BB2               	decfsz	??___flmul,f
  2608     0295  2A8F               	goto	u1485
  2609     0296                     l1402:
  2610     0296  083D               	movf	___flmul@bexp,w
  2611     0297  073C               	addwf	___flmul@aexp,w
  2612     0298  00B2               	movwf	??___flmul
  2613     0299  01B3               	clrf	??___flmul+1
  2614     029A  0DB3               	rlf	??___flmul+1,f
  2615     029B  0832               	movf	??___flmul,w
  2616     029C  3E82               	addlw	130
  2617     029D  00C2               	movwf	___flmul@temp
  2618     029E  0833               	movf	??___flmul+1,w
  2619     029F  1803               	skipnc
  2620     02A0  3E01               	addlw	1
  2621     02A1  3EFF               	addlw	255
  2622     02A2  00C3               	movwf	___flmul@temp+1
  2623     02A3  2AC1               	goto	l1414
  2624     02A4                     l1404:
  2625     02A4  3001               	movlw	1
  2626     02A5  00B2               	movwf	??___flmul
  2627     02A6                     u1495:
  2628     02A6  1003               	clrc
  2629     02A7  0DBE               	rlf	___flmul@prod,f
  2630     02A8  0DBF               	rlf	___flmul@prod+1,f
  2631     02A9  0DC0               	rlf	___flmul@prod+2,f
  2632     02AA  0DC1               	rlf	___flmul@prod+3,f
  2633     02AB  0BB2               	decfsz	??___flmul,f
  2634     02AC  2AA6               	goto	u1495
  2635     02AD                     l1406:
  2636     02AD  1FBB               	btfss	___flmul@grs+3,7
  2637     02AE  2AB0               	goto	u1501
  2638     02AF  2AB1               	goto	u1500
  2639     02B0                     u1501:
  2640     02B0  2AB2               	goto	l1410
  2641     02B1                     u1500:
  2642     02B1                     l1408:
  2643     02B1  143E               	bsf	___flmul@prod,0
  2644     02B2                     l1410:
  2645     02B2  3001               	movlw	1
  2646     02B3  00B2               	movwf	??___flmul
  2647     02B4                     u1515:
  2648     02B4  1003               	clrc
  2649     02B5  0DB8               	rlf	___flmul@grs,f
  2650     02B6  0DB9               	rlf	___flmul@grs+1,f
  2651     02B7  0DBA               	rlf	___flmul@grs+2,f
  2652     02B8  0DBB               	rlf	___flmul@grs+3,f
  2653     02B9  0BB2               	decfsz	??___flmul,f
  2654     02BA  2AB4               	goto	u1515
  2655     02BB                     l1412:
  2656     02BB  30FF               	movlw	255
  2657     02BC  07C2               	addwf	___flmul@temp,f
  2658     02BD  1803               	skipnc
  2659     02BE  0AC3               	incf	___flmul@temp+1,f
  2660     02BF  30FF               	movlw	255
  2661     02C0  07C3               	addwf	___flmul@temp+1,f
  2662     02C1                     l1414:
  2663     02C1  1FC0               	btfss	___flmul@prod+2,7
  2664     02C2  2AC4               	goto	u1521
  2665     02C3  2AC5               	goto	u1520
  2666     02C4                     u1521:
  2667     02C4  2AA4               	goto	l1404
  2668     02C5                     u1520:
  2669     02C5                     l1416:
  2670     02C5  01BC               	clrf	___flmul@aexp
  2671     02C6                     l1418:
  2672     02C6  1FBB               	btfss	___flmul@grs+3,7
  2673     02C7  2AC9               	goto	u1531
  2674     02C8  2ACA               	goto	u1530
  2675     02C9                     u1531:
  2676     02C9  2AE6               	goto	l1426
  2677     02CA                     u1530:
  2678     02CA                     l1420:
  2679     02CA  30FF               	movlw	255
  2680     02CB  0538               	andwf	___flmul@grs,w
  2681     02CC  00B2               	movwf	??___flmul
  2682     02CD  30FF               	movlw	255
  2683     02CE  0539               	andwf	___flmul@grs+1,w
  2684     02CF  00B3               	movwf	??___flmul+1
  2685     02D0  30FF               	movlw	255
  2686     02D1  053A               	andwf	___flmul@grs+2,w
  2687     02D2  00B4               	movwf	??___flmul+2
  2688     02D3  307F               	movlw	127
  2689     02D4  053B               	andwf	___flmul@grs+3,w
  2690     02D5  00B5               	movwf	??___flmul+3
  2691     02D6  0835               	movf	??___flmul+3,w
  2692     02D7  0434               	iorwf	??___flmul+2,w
  2693     02D8  0433               	iorwf	??___flmul+1,w
  2694     02D9  0432               	iorwf	??___flmul,w
  2695     02DA  1903               	skipnz
  2696     02DB  2ADD               	goto	u1541
  2697     02DC  2ADE               	goto	u1540
  2698     02DD                     u1541:
  2699     02DD  2AE1               	goto	l581
  2700     02DE                     u1540:
  2701     02DE                     l1422:
  2702     02DE  01BC               	clrf	___flmul@aexp
  2703     02DF  0ABC               	incf	___flmul@aexp,f
  2704     02E0  2AE6               	goto	l1426
  2705     02E1                     l581:
  2706     02E1  1C3E               	btfss	___flmul@prod,0
  2707     02E2  2AE4               	goto	u1551
  2708     02E3  2AE5               	goto	u1550
  2709     02E4                     u1551:
  2710     02E4  2AE6               	goto	l1426
  2711     02E5                     u1550:
  2712     02E5  2ADE               	goto	l1422
  2713     02E6                     l1426:
  2714     02E6  083C               	movf	___flmul@aexp,w
  2715     02E7  1903               	btfsc	3,2
  2716     02E8  2AEA               	goto	u1561
  2717     02E9  2AEB               	goto	u1560
  2718     02EA                     u1561:
  2719     02EA  2B1C               	goto	l1436
  2720     02EB                     u1560:
  2721     02EB                     l1428:
  2722     02EB  3001               	movlw	1
  2723     02EC  07BE               	addwf	___flmul@prod,f
  2724     02ED  3000               	movlw	0
  2725     02EE  1803               	skipnc
  2726     02EF  3001               	movlw	1
  2727     02F0  07BF               	addwf	___flmul@prod+1,f
  2728     02F1  3000               	movlw	0
  2729     02F2  1803               	skipnc
  2730     02F3  3001               	movlw	1
  2731     02F4  07C0               	addwf	___flmul@prod+2,f
  2732     02F5  3000               	movlw	0
  2733     02F6  1803               	skipnc
  2734     02F7  3001               	movlw	1
  2735     02F8  07C1               	addwf	___flmul@prod+3,f
  2736     02F9                     l1430:
  2737     02F9  1C41               	btfss	___flmul@prod+3,0
  2738     02FA  2AFC               	goto	u1571
  2739     02FB  2AFD               	goto	u1570
  2740     02FC                     u1571:
  2741     02FC  2B1C               	goto	l1436
  2742     02FD                     u1570:
  2743     02FD                     l1432:
  2744     02FD  083E               	movf	___flmul@prod,w
  2745     02FE  00B2               	movwf	??___flmul
  2746     02FF  083F               	movf	___flmul@prod+1,w
  2747     0300  00B3               	movwf	??___flmul+1
  2748     0301  0840               	movf	___flmul@prod+2,w
  2749     0302  00B4               	movwf	??___flmul+2
  2750     0303  0841               	movf	___flmul@prod+3,w
  2751     0304  00B5               	movwf	??___flmul+3
  2752     0305  3001               	movlw	1
  2753     0306  00B6               	movwf	??___flmul+4
  2754     0307                     u1585:
  2755     0307  0D35               	rlf	??___flmul+3,w
  2756     0308  0CB5               	rrf	??___flmul+3,f
  2757     0309  0CB4               	rrf	??___flmul+2,f
  2758     030A  0CB3               	rrf	??___flmul+1,f
  2759     030B  0CB2               	rrf	??___flmul,f
  2760     030C                     u1580:
  2761     030C  0BB6               	decfsz	??___flmul+4,f
  2762     030D  2B07               	goto	u1585
  2763     030E  0835               	movf	??___flmul+3,w
  2764     030F  00C1               	movwf	___flmul@prod+3
  2765     0310  0834               	movf	??___flmul+2,w
  2766     0311  00C0               	movwf	___flmul@prod+2
  2767     0312  0833               	movf	??___flmul+1,w
  2768     0313  00BF               	movwf	___flmul@prod+1
  2769     0314  0832               	movf	??___flmul,w
  2770     0315  00BE               	movwf	___flmul@prod
  2771     0316                     l1434:
  2772     0316  3001               	movlw	1
  2773     0317  07C2               	addwf	___flmul@temp,f
  2774     0318  1803               	skipnc
  2775     0319  0AC3               	incf	___flmul@temp+1,f
  2776     031A  3000               	movlw	0
  2777     031B  07C3               	addwf	___flmul@temp+1,f
  2778     031C                     l1436:
  2779     031C  0843               	movf	___flmul@temp+1,w
  2780     031D  3A80               	xorlw	128
  2781     031E  00FF               	movwf	btemp+1
  2782     031F  3080               	movlw	128
  2783     0320  027F               	subwf	btemp+1,w
  2784     0321  1D03               	skipz
  2785     0322  2B25               	goto	u1595
  2786     0323  30FF               	movlw	255
  2787     0324  0242               	subwf	___flmul@temp,w
  2788     0325                     u1595:
  2789     0325  1C03               	skipc
  2790     0326  2B28               	goto	u1591
  2791     0327  2B29               	goto	u1590
  2792     0328                     u1591:
  2793     0328  2B34               	goto	l1440
  2794     0329                     u1590:
  2795     0329                     l1438:
  2796     0329  307F               	movlw	127
  2797     032A  1283               	bcf	3,5	;RP0=0, select bank0
  2798     032B  1303               	bcf	3,6	;RP1=0, select bank0
  2799     032C  00C1               	movwf	___flmul@prod+3
  2800     032D  3080               	movlw	128
  2801     032E  00C0               	movwf	___flmul@prod+2
  2802     032F  3000               	movlw	0
  2803     0330  00BF               	movwf	___flmul@prod+1
  2804     0331  3000               	movlw	0
  2805     0332  00BE               	movwf	___flmul@prod
  2806     0333  2B65               	goto	l587
  2807     0334                     l1440:
  2808     0334  1283               	bcf	3,5	;RP0=0, select bank0
  2809     0335  1303               	bcf	3,6	;RP1=0, select bank0
  2810     0336  0843               	movf	___flmul@temp+1,w
  2811     0337  3A80               	xorlw	128
  2812     0338  00FF               	movwf	btemp+1
  2813     0339  3080               	movlw	128
  2814     033A  027F               	subwf	btemp+1,w
  2815     033B  1D03               	skipz
  2816     033C  2B3F               	goto	u1605
  2817     033D  3001               	movlw	1
  2818     033E  0242               	subwf	___flmul@temp,w
  2819     033F                     u1605:
  2820     033F  1803               	skipnc
  2821     0340  2B42               	goto	u1601
  2822     0341  2B43               	goto	u1600
  2823     0342                     u1601:
  2824     0342  2B4F               	goto	l1446
  2825     0343                     u1600:
  2826     0343                     l1442:
  2827     0343  3000               	movlw	0
  2828     0344  1283               	bcf	3,5	;RP0=0, select bank0
  2829     0345  1303               	bcf	3,6	;RP1=0, select bank0
  2830     0346  00C1               	movwf	___flmul@prod+3
  2831     0347  3000               	movlw	0
  2832     0348  00C0               	movwf	___flmul@prod+2
  2833     0349  3000               	movlw	0
  2834     034A  00BF               	movwf	___flmul@prod+1
  2835     034B  3000               	movlw	0
  2836     034C  00BE               	movwf	___flmul@prod
  2837     034D                     l1444:
  2838     034D  01B7               	clrf	___flmul@sign
  2839     034E  2B65               	goto	l587
  2840     034F                     l1446:
  2841     034F  1283               	bcf	3,5	;RP0=0, select bank0
  2842     0350  1303               	bcf	3,6	;RP1=0, select bank0
  2843     0351  0842               	movf	___flmul@temp,w
  2844     0352  00BD               	movwf	___flmul@bexp
  2845     0353  30FF               	movlw	255
  2846     0354  05BE               	andwf	___flmul@prod,f
  2847     0355  30FF               	movlw	255
  2848     0356  05BF               	andwf	___flmul@prod+1,f
  2849     0357  307F               	movlw	127
  2850     0358  05C0               	andwf	___flmul@prod+2,f
  2851     0359  3000               	movlw	0
  2852     035A  05C1               	andwf	___flmul@prod+3,f
  2853     035B                     l1448:
  2854     035B  1C3D               	btfss	___flmul@bexp,0
  2855     035C  2B5E               	goto	u1611
  2856     035D  2B5F               	goto	u1610
  2857     035E                     u1611:
  2858     035E  2B60               	goto	l1452
  2859     035F                     u1610:
  2860     035F                     l1450:
  2861     035F  17C0               	bsf	___flmul@prod+2,7
  2862     0360                     l1452:
  2863     0360  083D               	movf	___flmul@bexp,w
  2864     0361  00B2               	movwf	??___flmul
  2865     0362  1003               	clrc
  2866     0363  0C32               	rrf	??___flmul,w
  2867     0364  00C1               	movwf	___flmul@prod+3
  2868     0365                     l587:
  2869     0365  0837               	movf	___flmul@sign,w
  2870     0366  00B2               	movwf	??___flmul
  2871     0367  0832               	movf	??___flmul,w
  2872     0368  04C1               	iorwf	___flmul@prod+3,f
  2873     0369                     l1454:
  2874     0369  0841               	movf	___flmul@prod+3,w
  2875     036A  00AD               	movwf	?___flmul+3
  2876     036B  0840               	movf	___flmul@prod+2,w
  2877     036C  00AC               	movwf	?___flmul+2
  2878     036D  083F               	movf	___flmul@prod+1,w
  2879     036E  00AB               	movwf	?___flmul+1
  2880     036F  083E               	movf	___flmul@prod,w
  2881     0370  00AA               	movwf	?___flmul
  2882     0371                     l575:
  2883     0371  0008               	return
  2884     0372                     __end_of___flmul:
  2885                           
  2886                           	psect	text8
  2887     06D5                     __ptext8:	
  2888 ;; *************** function __Umul8_16 *****************
  2889 ;; Defined at:
  2890 ;;		line 4 in file "C:\Program Files\Microchip\xc8\v2.40\pic\sources\c90\common\Umul8_16.c"
  2891 ;; Parameters:    Size  Location     Type
  2892 ;;  multiplier      1    wreg     unsigned char 
  2893 ;;  multiplicand    1    4[COMMON] unsigned char 
  2894 ;; Auto vars:     Size  Location     Type
  2895 ;;  multiplier      1    4[BANK0 ] unsigned char 
  2896 ;;  word_mpld       2    2[BANK0 ] unsigned int 
  2897 ;;  product         2    0[BANK0 ] unsigned int 
  2898 ;; Return value:  Size  Location     Type
  2899 ;;                  2    4[COMMON] unsigned int 
  2900 ;; Registers used:
  2901 ;;		wreg, status,2, status,0
  2902 ;; Tracked objects:
  2903 ;;		On entry : 0/0
  2904 ;;		On exit  : 0/0
  2905 ;;		Unchanged: 0/0
  2906 ;; Data sizes:     COMMON   BANK0   BANK1   BANK3   BANK2
  2907 ;;      Params:         2       0       0       0       0
  2908 ;;      Locals:         0       5       0       0       0
  2909 ;;      Temps:          2       0       0       0       0
  2910 ;;      Totals:         4       5       0       0       0
  2911 ;;Total ram usage:        9 bytes
  2912 ;; Hardware stack levels used: 1
  2913 ;; Hardware stack levels required when called: 1
  2914 ;; This function calls:
  2915 ;;		Nothing
  2916 ;; This function is called by:
  2917 ;;		___flmul
  2918 ;; This function uses a non-reentrant model
  2919 ;;
  2920                           
  2921     06D5                     __Umul8_16:	
  2922                           ;psect for function __Umul8_16
  2923                           
  2924                           
  2925                           ;incstack = 0
  2926                           ; Regs used in __Umul8_16: [wreg+status,2+status,0]
  2927                           ;__Umul8_16@multiplier stored from wreg
  2928     06D5  1283               	bcf	3,5	;RP0=0, select bank0
  2929     06D6  1303               	bcf	3,6	;RP1=0, select bank0
  2930     06D7  00A4               	movwf	__Umul8_16@multiplier
  2931     06D8                     l1210:
  2932     06D8  01A0               	clrf	__Umul8_16@product
  2933     06D9  01A1               	clrf	__Umul8_16@product+1
  2934     06DA                     l1212:
  2935     06DA  0874               	movf	__Umul8_16@multiplicand,w
  2936     06DB  00F6               	movwf	??__Umul8_16
  2937     06DC  01F7               	clrf	??__Umul8_16+1
  2938     06DD  0876               	movf	??__Umul8_16,w
  2939     06DE  00A2               	movwf	__Umul8_16@word_mpld
  2940     06DF  0877               	movf	??__Umul8_16+1,w
  2941     06E0  00A3               	movwf	__Umul8_16@word_mpld+1
  2942     06E1                     l1214:
  2943     06E1  1C24               	btfss	__Umul8_16@multiplier,0
  2944     06E2  2EE4               	goto	u1121
  2945     06E3  2EE5               	goto	u1120
  2946     06E4                     u1121:
  2947     06E4  2EEB               	goto	l594
  2948     06E5                     u1120:
  2949     06E5                     l1216:
  2950     06E5  0822               	movf	__Umul8_16@word_mpld,w
  2951     06E6  07A0               	addwf	__Umul8_16@product,f
  2952     06E7  1803               	skipnc
  2953     06E8  0AA1               	incf	__Umul8_16@product+1,f
  2954     06E9  0823               	movf	__Umul8_16@word_mpld+1,w
  2955     06EA  07A1               	addwf	__Umul8_16@product+1,f
  2956     06EB                     l594:
  2957     06EB  3001               	movlw	1
  2958     06EC                     u1135:
  2959     06EC  1003               	clrc
  2960     06ED  0DA2               	rlf	__Umul8_16@word_mpld,f
  2961     06EE  0DA3               	rlf	__Umul8_16@word_mpld+1,f
  2962     06EF  3EFF               	addlw	-1
  2963     06F0  1D03               	skipz
  2964     06F1  2EEC               	goto	u1135
  2965     06F2  1003               	clrc
  2966     06F3  0CA4               	rrf	__Umul8_16@multiplier,f
  2967     06F4                     l1218:
  2968     06F4  0824               	movf	__Umul8_16@multiplier,w
  2969     06F5  1D03               	btfss	3,2
  2970     06F6  2EF8               	goto	u1141
  2971     06F7  2EF9               	goto	u1140
  2972     06F8                     u1141:
  2973     06F8  2EE1               	goto	l1214
  2974     06F9                     u1140:
  2975     06F9                     l1220:
  2976     06F9  0821               	movf	__Umul8_16@product+1,w
  2977     06FA  00F5               	movwf	?__Umul8_16+1
  2978     06FB  0820               	movf	__Umul8_16@product,w
  2979     06FC  00F4               	movwf	?__Umul8_16
  2980     06FD                     l596:
  2981     06FD  0008               	return
  2982     06FE                     __end_of__Umul8_16:
  2983                           
  2984                           	psect	text9
  2985     05E5                     __ptext9:	
  2986 ;; *************** function _isr *****************
  2987 ;; Defined at:
  2988 ;;		line 71 in file "newmain.c"
  2989 ;; Parameters:    Size  Location     Type
  2990 ;;		None
  2991 ;; Auto vars:     Size  Location     Type
  2992 ;;		None
  2993 ;; Return value:  Size  Location     Type
  2994 ;;                  1    wreg      void 
  2995 ;; Registers used:
  2996 ;;		wreg, status,2, status,0
  2997 ;; Tracked objects:
  2998 ;;		On entry : 0/0
  2999 ;;		On exit  : 0/0
  3000 ;;		Unchanged: 0/0
  3001 ;; Data sizes:     COMMON   BANK0   BANK1   BANK3   BANK2
  3002 ;;      Params:         0       0       0       0       0
  3003 ;;      Locals:         0       0       0       0       0
  3004 ;;      Temps:          4       0       0       0       0
  3005 ;;      Totals:         4       0       0       0       0
  3006 ;;Total ram usage:        4 bytes
  3007 ;; Hardware stack levels used: 1
  3008 ;; This function calls:
  3009 ;;		Nothing
  3010 ;; This function is called by:
  3011 ;;		Interrupt level 1
  3012 ;; This function uses a non-reentrant model
  3013 ;;
  3014                           
  3015     05E5                     _isr:	
  3016                           ;psect for function _isr
  3017                           
  3018     05E5                     i1l1502:
  3019                           
  3020                           ;newmain.c: 75:     if (PIR1bits.ADIF) {
  3021     05E5  1283               	bcf	3,5	;RP0=0, select bank0
  3022     05E6  1303               	bcf	3,6	;RP1=0, select bank0
  3023     05E7  1F0C               	btfss	12,6	;volatile
  3024     05E8  2DEA               	goto	u176_21
  3025     05E9  2DEB               	goto	u176_20
  3026     05EA                     u176_21:
  3027     05EA  2E08               	goto	i1l1514
  3028     05EB                     u176_20:
  3029     05EB                     i1l1504:
  3030                           
  3031                           ;newmain.c: 77:         if (ADCON0bits.CHS == 0b0000){
  3032     05EB  0C1F               	rrf	31,w	;volatile
  3033     05EC  00F0               	movwf	??_isr
  3034     05ED  0C70               	rrf	??_isr,w
  3035     05EE  390F               	andlw	15
  3036     05EF  3A00               	xorlw	0
  3037     05F0  1D03               	skipz
  3038     05F1  2DF3               	goto	u177_21
  3039     05F2  2DF4               	goto	u177_20
  3040     05F3                     u177_21:
  3041     05F3  2DF7               	goto	i1l1508
  3042     05F4                     u177_20:
  3043     05F4                     i1l1506:
  3044                           
  3045                           ;newmain.c: 78:             PORTD = ADRESH;
  3046     05F4  081E               	movf	30,w	;volatile
  3047     05F5  0088               	movwf	8	;volatile
  3048                           
  3049                           ;newmain.c: 80:         }
  3050     05F6  2E07               	goto	i1l1512
  3051     05F7                     i1l1508:
  3052     05F7  0C1F               	rrf	31,w	;volatile
  3053     05F8  00F0               	movwf	??_isr
  3054     05F9  0C70               	rrf	??_isr,w
  3055     05FA  390F               	andlw	15
  3056     05FB  3A01               	xorlw	1
  3057     05FC  1D03               	skipz
  3058     05FD  2DFF               	goto	u178_21
  3059     05FE  2E00               	goto	u178_20
  3060     05FF                     u178_21:
  3061     05FF  2E07               	goto	i1l1512
  3062     0600                     u178_20:
  3063     0600                     i1l1510:
  3064                           
  3065                           ;newmain.c: 82:             ADC_display = ADRESH;
  3066     0600  081E               	movf	30,w	;volatile
  3067     0601  00F0               	movwf	??_isr
  3068     0602  01F1               	clrf	??_isr+1
  3069     0603  0870               	movf	??_isr,w
  3070     0604  00E4               	movwf	_ADC_display
  3071     0605  0871               	movf	??_isr+1,w
  3072     0606  00E5               	movwf	_ADC_display+1
  3073     0607                     i1l1512:
  3074                           
  3075                           ;newmain.c: 85:             PIR1bits.ADIF = 0;
  3076     0607  130C               	bcf	12,6	;volatile
  3077     0608                     i1l1514:
  3078                           
  3079                           ;newmain.c: 88:     if (INTCONbits.T0IF){
  3080     0608  1D0B               	btfss	11,2	;volatile
  3081     0609  2E0B               	goto	u179_21
  3082     060A  2E0C               	goto	u179_20
  3083     060B                     u179_21:
  3084     060B  2E33               	goto	i1l83
  3085     060C                     u179_20:
  3086     060C                     i1l1516:
  3087                           
  3088                           ;newmain.c: 91:         PORTE = 0;
  3089     060C  0189               	clrf	9	;volatile
  3090     060D                     i1l1518:
  3091                           
  3092                           ;newmain.c: 93:         if (bandera == 0){
  3093     060D  0879               	movf	_bandera,w
  3094     060E  1D03               	btfss	3,2
  3095     060F  2E11               	goto	u180_21
  3096     0610  2E12               	goto	u180_20
  3097     0611                     u180_21:
  3098     0611  2E19               	goto	i1l1524
  3099     0612                     u180_20:
  3100     0612                     i1l1520:
  3101                           
  3102                           ;newmain.c: 94:             PORTC = display[2];
  3103     0612  0861               	movf	_display+2,w
  3104     0613  0087               	movwf	7	;volatile
  3105                           
  3106                           ;newmain.c: 95:             PORTE = 1;
  3107     0614  3001               	movlw	1
  3108     0615  0089               	movwf	9	;volatile
  3109     0616                     i1l1522:
  3110                           
  3111                           ;newmain.c: 96:             bandera = 1;
  3112     0616  01F9               	clrf	_bandera
  3113     0617  0AF9               	incf	_bandera,f
  3114                           
  3115                           ;newmain.c: 98:         }
  3116     0618  2E30               	goto	i1l1534
  3117     0619                     i1l1524:
  3118     0619  0379               	decf	_bandera,w
  3119     061A  1D03               	btfss	3,2
  3120     061B  2E1D               	goto	u181_21
  3121     061C  2E1E               	goto	u181_20
  3122     061D                     u181_21:
  3123     061D  2E25               	goto	i1l1528
  3124     061E                     u181_20:
  3125     061E                     i1l1526:
  3126                           
  3127                           ;newmain.c: 100:             PORTC = display[1];
  3128     061E  0860               	movf	_display+1,w
  3129     061F  0087               	movwf	7	;volatile
  3130                           
  3131                           ;newmain.c: 101:             PORTE = 2;
  3132     0620  3002               	movlw	2
  3133     0621  0089               	movwf	9	;volatile
  3134                           
  3135                           ;newmain.c: 102:             bandera = 2;
  3136     0622  3002               	movlw	2
  3137     0623  00F9               	movwf	_bandera
  3138                           
  3139                           ;newmain.c: 103:         }
  3140     0624  2E30               	goto	i1l1534
  3141     0625                     i1l1528:
  3142     0625  3002               	movlw	2
  3143     0626  0679               	xorwf	_bandera,w
  3144     0627  1D03               	btfss	3,2
  3145     0628  2E2A               	goto	u182_21
  3146     0629  2E2B               	goto	u182_20
  3147     062A                     u182_21:
  3148     062A  2E30               	goto	i1l1534
  3149     062B                     u182_20:
  3150     062B                     i1l1530:
  3151                           
  3152                           ;newmain.c: 105:             PORTC = display[0];
  3153     062B  085F               	movf	_display,w
  3154     062C  0087               	movwf	7	;volatile
  3155                           
  3156                           ;newmain.c: 106:             PORTE = 4;
  3157     062D  3004               	movlw	4
  3158     062E  0089               	movwf	9	;volatile
  3159     062F                     i1l1532:
  3160                           
  3161                           ;newmain.c: 107:             bandera = 0;
  3162     062F  01F9               	clrf	_bandera
  3163     0630                     i1l1534:
  3164                           
  3165                           ;newmain.c: 109:         TMR0 = 216;
  3166     0630  30D8               	movlw	216
  3167     0631  0081               	movwf	1	;volatile
  3168     0632                     i1l1536:
  3169                           
  3170                           ;newmain.c: 110:         INTCONbits.T0IF = 0;
  3171     0632  110B               	bcf	11,2	;volatile
  3172     0633                     i1l83:
  3173     0633  0873               	movf	??_isr+3,w
  3174     0634  008A               	movwf	10
  3175     0635  0E72               	swapf	??_isr+2,w
  3176     0636  0083               	movwf	3
  3177     0637  0EFE               	swapf	btemp,f
  3178     0638  0E7E               	swapf	btemp,w
  3179     0639  0009               	retfie
  3180     063A                     __end_of_isr:
  3181     007E                     btemp	set	126	;btemp
  3182     007E                     wtemp0	set	126
  3183                           
  3184                           	psect	intentry
  3185     0004                     __pintentry:	
  3186                           ;incstack = 0
  3187                           ; Regs used in _isr: [wreg+status,2+status,0]
  3188                           
  3189     0004                     interrupt_function:
  3190     007E                     saved_w	set	btemp
  3191     0004  00FE               	movwf	btemp
  3192     0005  0E03               	swapf	3,w
  3193     0006  00F2               	movwf	??_isr+2
  3194     0007  080A               	movf	10,w
  3195     0008  00F3               	movwf	??_isr+3
  3196     0009  120A  118A  2DE5   	ljmp	_isr
  3197                           
  3198                           	psect	idloc
  3199                           
  3200                           ;Config register IDLOC0 @ 0x2000
  3201                           ;	unspecified, using default values
  3202     2000                     	org	8192
  3203     2000  3FFF               	dw	16383
  3204                           
  3205                           ;Config register IDLOC1 @ 0x2001
  3206                           ;	unspecified, using default values
  3207     2001                     	org	8193
  3208     2001  3FFF               	dw	16383
  3209                           
  3210                           ;Config register IDLOC2 @ 0x2002
  3211                           ;	unspecified, using default values
  3212     2002                     	org	8194
  3213     2002  3FFF               	dw	16383
  3214                           
  3215                           ;Config register IDLOC3 @ 0x2003
  3216                           ;	unspecified, using default values
  3217     2003                     	org	8195
  3218     2003  3FFF               	dw	16383
  3219                           
  3220                           	psect	config
  3221                           
  3222                           ;Config register CONFIG1 @ 0x2007
  3223                           ;	Oscillator Selection bits
  3224                           ;	FOSC = INTRC_NOCLKOUT, INTOSCIO oscillator: I/O function on RA6/OSC2/CLKOUT pin, I/O f
      +                          unction on RA7/OSC1/CLKIN
  3225                           ;	Watchdog Timer Enable bit
  3226                           ;	WDTE = OFF, WDT disabled and can be enabled by SWDTEN bit of the WDTCON register
  3227                           ;	Power-up Timer Enable bit
  3228                           ;	PWRTE = OFF, PWRT disabled
  3229                           ;	RE3/MCLR pin function select bit
  3230                           ;	MCLRE = OFF, RE3/MCLR pin function is digital input, MCLR internally tied to VDD
  3231                           ;	Code Protection bit
  3232                           ;	CP = OFF, Program memory code protection is disabled
  3233                           ;	Data Code Protection bit
  3234                           ;	CPD = OFF, Data memory code protection is disabled
  3235                           ;	Brown Out Reset Selection bits
  3236                           ;	BOREN = OFF, BOR disabled
  3237                           ;	Internal External Switchover bit
  3238                           ;	IESO = OFF, Internal/External Switchover mode is disabled
  3239                           ;	Fail-Safe Clock Monitor Enabled bit
  3240                           ;	FCMEN = OFF, Fail-Safe Clock Monitor is disabled
  3241                           ;	Low Voltage Programming Enable bit
  3242                           ;	LVP = OFF, RB3 pin has digital I/O, HV on MCLR must be used for programming
  3243                           ;	In-Circuit Debugger Mode bit
  3244                           ;	DEBUG = 0x1, unprogramme  3245     2007                     	org	8199
  3246     2007  20D4               	dw	8404
  3247                           
  3248                           ;Config register CONFIG2 @ 0x2008
  3249                           ;	Brown-out Reset Selection bit
  3250                           ;	BOR4V = BOR40V, Brown-out Reset set to 4.0V
  3251                           ;	Flash Program Memory Self Write Enable bits
  3252                           ;	WRT = OFF, Write protection off
  3253     2008                     	org	8200
  3254     2008  3FFF               	dw	16383

Data Sizes:
    Strings     0
    Constant    0
    Data        16
    BSS         12
    Persistent  0
    Stack       0

Auto Spaces:
    Space          Size  Autos    Used
    COMMON           14      9      10
    BANK0            80     47      74
    BANK1            80      0       0
    BANK3            96      0       0
    BANK2            96      0       0

Pointer List with Targets:

    None.

Critical Paths under _main in COMMON

    _displays->___awdiv
    _displays->___awmod
    ___fltol->___xxtofl
    ___flmul->__Umul8_16
    ___flmul->___xxtofl

Critical Paths under _isr in COMMON

    None.

Critical Paths under _main in BANK0

    _main->___fltol
    _displays->___awdiv
    ___fltol->___flmul
    ___flmul->___xxtofl

Critical Paths under _isr in BANK0

    None.

Critical Paths under _main in BANK1

    None.

Critical Paths under _isr in BANK1

    None.

Critical Paths under _main in BANK3

    None.

Critical Paths under _isr in BANK3

    None.

Critical Paths under _main in BANK2

    None.

Critical Paths under _isr in BANK2

    None.

Call Graph Tables:

 ---------------------------------------------------------------------------------
 (Depth) Function   	        Calls       Base Space   Used Autos Params    Refs
 ---------------------------------------------------------------------------------
 (0) _main                                                 1     1      0    4566
                                             46 BANK0      1     1      0
                            ___flmul
                            ___fltol
                           ___xxtofl
                           _displays
                              _setup
 ---------------------------------------------------------------------------------
 (1) _setup                                                2     2      0       0
                                              4 COMMON     2     2      0
 ---------------------------------------------------------------------------------
 (1) _displays                                             4     2      2    1324
                                              4 BANK0      4     2      2
                            ___awdiv
                            ___awmod
 ---------------------------------------------------------------------------------
 (2) ___awmod                                              7     3      4     600
                                              4 COMMON     5     1      4
                                              0 BANK0      2     2      0
 ---------------------------------------------------------------------------------
 (2) ___awdiv                                              9     5      4     604
                                              4 COMMON     5     1      4
                                              0 BANK0      4     4      0
 ---------------------------------------------------------------------------------
 (1) ___xxtofl                                            14    10      4     398
                                              4 COMMON     4     0      4
                                              0 BANK0     10    10      0
 ---------------------------------------------------------------------------------
 (1) ___fltol                                             10     6      4     427
                                             36 BANK0     10     6      4
                            ___flmul (ARG)
                           ___xxtofl (ARG)
 ---------------------------------------------------------------------------------
 (1) ___flmul                                             26    18      8    2417
                                             10 BANK0     26    18      8
                          __Umul8_16
                           ___xxtofl (ARG)
 ---------------------------------------------------------------------------------
 (2) __Umul8_16                                            9     7      2     799
                                              4 COMMON     4     2      2
                                              0 BANK0      5     5      0
 ---------------------------------------------------------------------------------
 Estimated maximum stack depth 2
 ---------------------------------------------------------------------------------
 (Depth) Function   	        Calls       Base Space   Used Autos Params    Refs
 ---------------------------------------------------------------------------------
 (3) _isr                                                  4     4      0       0
                                              0 COMMON     4     4      0
 ---------------------------------------------------------------------------------
 Estimated maximum stack depth 3
 ---------------------------------------------------------------------------------

 Call Graph Graphs:

 _main (ROOT)
   ___flmul
     __Umul8_16
     ___xxtofl (ARG)
   ___fltol
     ___flmul (ARG)
     ___xxtofl (ARG)
   ___xxtofl
   _displays
     ___awdiv
     ___awmod
   _setup

 _isr (ROOT)

 Address spaces:
Name               Size   Autos  Total    Cost      Usage
BANK3               60      0       0       9        0.0%
BITBANK3            60      0       0       8        0.0%
SFR3                 0      0       0       4        0.0%
BITSFR3              0      0       0       4        0.0%
BANK2               60      0       0      11        0.0%
BITBANK2            60      0       0      10        0.0%
SFR2                 0      0       0       5        0.0%
BITSFR2              0      0       0       5        0.0%
BANK1               50      0       0       7        0.0%
BITBANK1            50      0       0       6        0.0%
SFR1                 0      0       0       2        0.0%
BITSFR1              0      0       0       2        0.0%
BANK0               50     2F      4A       5       92.5%
BITBANK0            50      0       0       4        0.0%
SFR0                 0      0       0       1        0.0%
BITSFR0              0      0       0       1        0.0%
COMMON               E      9       A       1       71.4%
BITCOMMON            E      0       0       0        0.0%
CODE                 0      0       0       0        0.0%
DATA                 0      0      54      12        0.0%
ABS                  0      0      54       3        0.0%
NULL                 0      0       0       0        0.0%
STACK                0      0       0       2        0.0%
EEDATA             100      0       0       0        0.0%


Microchip Technology PIC Macro Assembler V2.40 build 20220703182018 
Symbol Table                                                                                   Sat Mar 25 21:31:19 2023

                      pc 0002                       l97 06D4             ___awdiv@sign 0021  
                     fsr 0004      __Umul8_16@word_mpld 0022                      l100 0688  
                    l352 05E4                      l339 0589                      l372 0520  
                    l621 042B                      l382 0520                      l632 03F5  
                    l633 0401                      l625 03D9                      l379 050B  
                    l619 0396                      l581 02E1                      l575 0371  
                    l594 06EB                      l587 0365                      l596 06FD  
                    u930 0528                      u931 0527                      u940 0533  
                    u941 0532                      u950 0544                      u951 0543  
                    u970 0556                      u971 0555                      u965 0548  
                    u990 0567                      u991 0566                      u985 0557  
                    u995 0563                      _isr 05E5                      fsr0 0004  
                    indf 0000             ___awmod@sign 0021             ___flmul@aexp 003C  
           ___flmul@bexp 003D             ___flmul@sign 0037             ___flmul@temp 0042  
           ___flmul@prod 003E             ___fltol@exp1 004D                     l1200 05D0  
                   l1210 06D8                     l1130 0524                     l1202 05D6  
                   l1220 06F9                     l1212 06DA                     l1140 0538  
                   l1132 0528                     l1204 05DB                     l1214 06E1  
                   l1150 054E                     l1142 053C                     l1134 052D  
                   l1206 05E0                     l1230 069D                     l1216 06E5  
                   l1400 028D                     l1320 0032                     l1160 056E  
                   l1152 0552                     l1144 053E                     l1136 052F  
                   l1128 0521                     l1240 06A5                     l1232 06A1  
                   l1224 0689                     l1218 06F4                     l1410 02B2  
                   l1402 0296                     l1330 0045                     l1322 0036  
                   l1162 0575                     l1154 0556                     l1146 0544  
                   l1138 0533                     l1250 06AD                     l1242 06A6  
                   l1234 06A2                     l1226 068D                     l1420 02CA  
                   l1412 02BB                     l1404 02A4                     l1340 0060  
                   l1332 004D                     l1324 003A                     l1156 0567  
                   l1148 0547                     l1164 057B                     l1180 0598  
                   l1172 058A                     l1260 06B9                     l1252 06AE  
                   l1244 06A7                     l1236 06A3                     l1228 068E  
                   l1430 02F9                     l1422 02DE                     l1406 02AD  
                   l1414 02C1                     l1350 0077                     l1342 0064  
                   l1334 004F                     l1326 003B                     l1318 002D  
                   l1166 0580                     l1158 056D                     l1190 05B1  
                   l1182 059C                     l1174 058D                     l1270 06C9  
                   l1262 06BB                     l1254 06AF                     l1246 06AB  
                   l1238 06A4                     l1440 0334                     l1432 02FD  
                   l1416 02C5                     l1408 02B1                     l1352 0079  
                   l1344 0065                     l1336 0057                     l1328 0040  
                   l1168 0585                     l1192 05B5                     l1184 05A1  
                   l1176 0591                     l1272 06CC                     l1264 06C4  
                   l1256 06B2                     l1248 06AC                     l1600 042C  
                   l1450 035F                     l1442 0343                     l1434 0316  
                   l1426 02E6                     l1418 02C6                     l1370 00E6  
                   l1362 0094                     l1354 0081                     l1346 006A  
                   l1338 005C                     l1194 05B9                     l1186 05A7  
                   l1178 0596                     l1274 06D1                     l1266 06C7  
                   l1258 06B5                     l1610 0480                     l1602 0431  
                   l1452 0360                     l1444 034D                     l1428 02EB  
                   l1436 031C                     l1380 015F                     l1372 0110  
                   l1364 00A2                     l1356 0086                     l1348 006F  
                   l1460 037A                     l1196 05C3                     l1188 05AA  
                   l1276 063A                     l1268 06C8                     l1620 049C  
                   l1612 0485                     l1604 0434                     l1454 0369  
                   l1446 034F                     l1438 0329                     l1390 01DB  
                   l1382 017C                     l1374 012C                     l1366 00AF  
                   l1358 008B                     l1470 03A7                     l1462 037E  
                   l1198 05C9                     l1278 0686                     l1622 049E  
                   l1614 048A                     l1606 046F                     l1448 035B  
                   l1392 0206                     l1384 018A                     l1376 0148  
                   l1368 00CA                     l1480 03D0                     l1472 03AA  
                   l1464 038E                     l1616 048E                     l1608 0478  
                   l1394 0214                     l1386 01A7                     l1378 0151  
                   l1570 04BD                     l1490 0403                     l1482 03E0  
                   l1474 03B7                     l1466 039E                     l1458 0375  
                   l1618 0497                     l1396 023F                     l1388 01BE  
                   l1580 04DF                     l1572 04D0                     l1564 04A9  
                   l1492 0419                     l1484 03EB                     l1476 03BE  
                   l1398 0265                     l1574 04D1                     l1566 04B4  
                   l1494 041E                     l1486 03EF                     l1478 03C2  
                   l1576 04D9                     l1496 0422                     l1488 03F9  
                   l1594 0500                     l1586 04E7                     l1578 04DB  
                   l1498 0423                     l1596 0510                     l1588 04F9  
                   l1598 0515                     _ADIF 0066                     ?_isr 0070  
                   u1010 057B                     u1011 057A                     u1020 0580  
                   u1100 05D6                     u1021 057F                     u1005 056F  
                   u1101 05D5                     u1110 05DB                     u1030 0591  
                   u1111 05DA                     u1031 0590                     u1120 06E5  
                   u1040 059C                     u1121 06E4                     u1041 059B  
                   u1050 05A7                     u1051 05A6                     u1140 06F9  
                   u1300 006F                     u1141 06F8                     u1301 006E  
                   u1310 0086                     u1070 05B9                     u1135 06EC  
                   u1311 0085                     u1071 05B8                     u1320 008B  
                   u1080 05C3                     u1321 008A                     u1081 05C2  
                   u1065 05AB                     u1250 003A                     u1411 01CD  
                   u1331 00D8                     u1251 0039                     u1500 02B1  
                   u1412 01D4                     u1332 00DF                     u1260 0040  
                   u1501 02B0                     u1421 01F8                     u1413 01DB  
                   u1405 01A9                     u1341 00F4                     u1333 00E6  
                   u1261 003F                     u1085 05BF                     u1422 01FF  
                   u1342 00FB                     u1270 0045                     u1431 0223  
                   u1423 0206                     u1351 011E                     u1343 0102  
                   u1271 0044                     u1095 05CA                     u1600 0343  
                   u1520 02C5                     u1440 024B                     u1432 022A  
                   u1352 0125                     u1280 0064                     u1601 0342  
                   u1521 02C4                     u1433 0231                     u1361 013A  
                   u1353 012C                     u1281 0063                     u1610 035F  
                   u1530 02CA                     u1362 0141                     u1290 006A  
                   u1611 035E                     u1531 02C9                     u1515 02B4  
                   u1451 0257                     u1363 0148                     u1291 0069  
                   u1540 02DE                     u1460 0273                     u1452 025E  
                   u1700 03EF                     u1620 037A                     u1605 033F  
                   u1541 02DD                     u1453 0265                     u1445 0246  
                   u1381 016E                     u1701 03EE                     u1621 0379  
                   u1550 02E5                     u1382 0175                     u1710 03F5  
                   u1630 037E                     u1551 02E4                     u1471 027F  
                   u1391 0199                     u1383 017C                     u1375 014A  
                   u1711 03F4                     u1631 037D                     u1560 02EB  
                   u1472 0286                     u1392 01A0                     u1720 03F9  
                   u1640 039E                     u1561 02EA                     u1473 028D  
                   u1465 026E                     u1393 01A7                     u1721 03F8  
                   u1641 039D                     u1570 02FD                     u1730 040E  
                   u1571 02FC                     u1580 030C                     u1900 04F8  
                   u1740 041E                     u1660 03BD                     u1485 028F  
                   u1901 04F7                     u1741 041D                     u1661 03BC  
                   u1590 0329                     u1910 04FF                     u1750 0422  
                   u1591 0328                     u1495 02A6                     u1911 04FE  
                   u1751 0421                     u1735 0409                     u1655 03AF  
                   u1680 03DF                     u1585 0307                     u1681 03DE  
                   u1930 0510                     u1850 04B4                     u1595 0325  
                   u1931 050F                     u1851 04B3                     u1675 03D1  
                   u1940 0515                     u1860 04CB                     u1941 0514  
                   u1925 0502                     u1870 04DF                     u1950 048E  
                   u1871 04DE                     u1695 03E4                     u1951 048D  
                   u1880 04E6                     u1960 0497                     u1881 04E5  
                   u1865 04C6                     u1961 0496                     u1895 04E8  
                   u1977 04A2                     u1987 06BF                     u1997 06CE  
                   i1l83 0633                     _TMR0 0001                     _main 042C  
                   btemp 007E                     start 000C                    ??_isr 0070  
          ___fltol@sign1 004C                    ?_main 0070          __end_of___awdiv 058A  
        __end_of___awmod 05E5          __end_of___flmul 0372          __end_of___fltol 0521  
                  _ANSEL 0188          ___awdiv@divisor 0074                    _TABLA 004F  
        ___awdiv@counter 0020                    _PORTA 0005                    _PORTB 0006  
                  _PORTC 0007                    _PORTD 0008                    _PORTE 0009  
                  _TRISA 0085                    _TRISB 0086                    _TRISC 0087  
                  _TRISD 0088                    _TRISE 0089                    _setup 0689  
                  pclath 000A                    status 0003                    wtemp0 007E  
        __initialization 000F             __end_of_main 04A9                   ??_main 004E  
                 _ADRESH 001E         ___awdiv@dividend 0076                   ?_setup 0070  
                 _ANSELH 0189                   i1l1510 0600                   i1l1502 05E5  
                 i1l1520 0612                   i1l1512 0607                   i1l1504 05EB  
                 i1l1530 062B                   i1l1522 0616                   i1l1506 05F4  
                 i1l1514 0608                   i1l1532 062F                   i1l1524 0619  
                 i1l1516 060C                   i1l1508 05F7                   i1l1526 061E  
                 i1l1534 0630                   i1l1518 060D                   i1l1536 0632  
                 i1l1528 0625                   u180_20 0612                   u180_21 0611  
                 u181_20 061E                   u181_21 061D                   u182_20 062B  
                 u182_21 062A                   u176_20 05EB                   u176_21 05EA  
                 u177_20 05F4                   u177_21 05F3                   u178_20 0600  
                 u178_21 05FF                   u179_20 060C                   u179_21 060B  
       __end_of___xxtofl 042C         __end_of_displays 0689                ??___awdiv 0078  
              ??___awmod 0078                ??___flmul 0032                ??___fltol 0048  
       ___awdiv@quotient 0022          ___awmod@divisor 0074          ___awmod@counter 0020  
                 saved_w 007E             ___xxtofl@arg 0026             ___xxtofl@exp 0025  
           ___xxtofl@val 0074  __end_of__initialization 0029               ___fltol@f1 0044  
         __pcstackCOMMON 0070             __pidataBANK0 0711            __end_of_setup 06D5  
         _OPTION_REGbits 0081                  ??_setup 0074               __pbssBANK0 005F  
      __end_of__Umul8_16 06FE               __pmaintext 042C               __pintentry 0004  
              ?___xxtofl 0074                ?_displays 0024                  ___awdiv 0521  
                ___awmod 058A                  ___flmul 002D                  ___fltol 04A9  
                _bandera 0079                  _decenas 0068                  __ptext1 0689  
                __ptext2 063A                  __ptext3 058A                  __ptext4 0521  
                __ptext5 0372                  __ptext6 04A9                  __ptext7 002D  
                __ptext8 06D5                  __ptext9 05E5                  _display 005F  
             ??___xxtofl 0020         ___awmod@dividend 0076                  _residuo 0066  
                _voltage 0062               ??_displays 0026     end_of_initialization 0029  
          ___xxtofl@sign 0024              ___flmul@grs 0038      start_initialization 000F  
            __end_of_isr 063A              _ADC_display 0064               init_fetch0 06FE  
              __Umul8_16 06D5              __pdataBANK0 004F                ___flmul@a 002E  
              ___flmul@b 002A              __pbssCOMMON 0079                ___latbits 0002  
          __pcstackBANK0 0020                 ?___awdiv 0074                 ?___awmod 0074  
               ?___flmul 002A                 ?___fltol 0044               ?__Umul8_16 0074  
      interrupt_function 0004                 _PIE1bits 008C                 _PIR1bits 000C  
             _ADCON0bits 001F               _ADCON1bits 009F              ??__Umul8_16 0076  
               ___xxtofl 0372                 _centenas 0069                 _displays 063A  
               _unidades 0067               _INTCONbits 000B                 init_ram0 0702  
               intlevel1 0000               _OSCCONbits 008F          displays@numeros 0024  
 __Umul8_16@multiplicand 0074     __Umul8_16@multiplier 0024        __Umul8_16@product 0020  
